
src/sw/blinker.elf:     ファイル形式 elf32-littleriscv


セクション .text の逆アセンブル:

00000000 <_start>:
       0:	01800093          	li	ra,24
       4:	30509073          	csrw	mtvec,ra
       8:	00008137          	lui	sp,0x8
       c:	1c1020ef          	jal	ra,29cc <main>
      10:	0000006f          	j	10 <_start+0x10>

00000014 <dummy>:
      14:	00008067          	ret

00000018 <_expr>:
      18:	36d000ef          	jal	ra,b84 <__expr>
      1c:	0000006f          	j	1c <_expr+0x4>

00000020 <put32>:
      20:	00b52023          	sw	a1,0(a0)
      24:	00008067          	ret

00000028 <get32>:
      28:	00052503          	lw	a0,0(a0)
      2c:	00008067          	ret

00000030 <get_timel>:
      30:	c0102573          	rdtime	a0
      34:	00008067          	ret

00000038 <get_timeh>:
      38:	c8102573          	rdtimeh	a0
      3c:	00008067          	ret

00000040 <xvfprintf>:
      40:	f8010113          	addi	sp,sp,-128 # 7f80 <fast_osc_frequency+0x3f52>
      44:	06112e23          	sw	ra,124(sp)
      48:	06812c23          	sw	s0,120(sp)
      4c:	06912a23          	sw	s1,116(sp)
      50:	07212823          	sw	s2,112(sp)
      54:	07312623          	sw	s3,108(sp)
      58:	07412423          	sw	s4,104(sp)
      5c:	07512223          	sw	s5,100(sp)
      60:	07612023          	sw	s6,96(sp)
      64:	05712e23          	sw	s7,92(sp)
      68:	05812c23          	sw	s8,88(sp)
      6c:	05912a23          	sw	s9,84(sp)
      70:	05a12823          	sw	s10,80(sp)
      74:	05b12623          	sw	s11,76(sp)
      78:	0005c483          	lbu	s1,0(a1)
      7c:	00c12a23          	sw	a2,20(sp)
      80:	0c048c63          	beqz	s1,158 <xvfprintf+0x118>
      84:	000047b7          	lui	a5,0x4
      88:	bcc78793          	addi	a5,a5,-1076 # 3bcc <strlen+0x8c>
      8c:	00058913          	mv	s2,a1
      90:	00050413          	mv	s0,a0
      94:	00158b93          	addi	s7,a1,1
      98:	00004a37          	lui	s4,0x4
      9c:	00f12e23          	sw	a5,28(sp)
      a0:	02010993          	addi	s3,sp,32
      a4:	02500793          	li	a5,37
      a8:	3ef49e63          	bne	s1,a5,4a4 <xvfprintf+0x464>
      ac:	00194b83          	lbu	s7,1(s2)
      b0:	03000793          	li	a5,48
      b4:	48fb8063          	beq	s7,a5,534 <xvfprintf+0x4f4>
      b8:	02d00793          	li	a5,45
      bc:	4efb8463          	beq	s7,a5,5a4 <xvfprintf+0x564>
      c0:	00290913          	addi	s2,s2,2
      c4:	02000c93          	li	s9,32
      c8:	00012623          	sw	zero,12(sp)
      cc:	02a00793          	li	a5,42
      d0:	3efb9863          	bne	s7,a5,4c0 <xvfprintf+0x480>
      d4:	01412783          	lw	a5,20(sp)
      d8:	0007a483          	lw	s1,0(a5)
      dc:	00478b13          	addi	s6,a5,4
      e0:	0004d863          	bgez	s1,f0 <xvfprintf+0xb0>
      e4:	00200793          	li	a5,2
      e8:	409004b3          	neg	s1,s1
      ec:	00f12623          	sw	a5,12(sp)
      f0:	00094b83          	lbu	s7,0(s2)
      f4:	01612a23          	sw	s6,20(sp)
      f8:	00190913          	addi	s2,s2,1
      fc:	02e00793          	li	a5,46
     100:	fff00d93          	li	s11,-1
     104:	40fb8463          	beq	s7,a5,50c <xvfprintf+0x4cc>
     108:	06c00793          	li	a5,108
     10c:	08fb8463          	beq	s7,a5,194 <xvfprintf+0x154>
     110:	040b8463          	beqz	s7,158 <xvfprintf+0x118>
     114:	fa8b8713          	addi	a4,s7,-88
     118:	0ff77713          	andi	a4,a4,255
     11c:	02000793          	li	a5,32
     120:	00e7ec63          	bltu	a5,a4,138 <xvfprintf+0xf8>
     124:	01c12783          	lw	a5,28(sp)
     128:	00271713          	slli	a4,a4,0x2
     12c:	00f70733          	add	a4,a4,a5
     130:	00072783          	lw	a5,0(a4)
     134:	00078067          	jr	a5
     138:	00a00793          	li	a5,10
     13c:	62fb8e63          	beq	s7,a5,778 <xvfprintf+0x738>
     140:	60040463          	beqz	s0,748 <xvfprintf+0x708>
     144:	000b8513          	mv	a0,s7
     148:	000400e7          	jalr	s0
     14c:	00094483          	lbu	s1,0(s2)
     150:	00190b93          	addi	s7,s2,1
     154:	f40498e3          	bnez	s1,a4 <xvfprintf+0x64>
     158:	07c12083          	lw	ra,124(sp)
     15c:	07812403          	lw	s0,120(sp)
     160:	07412483          	lw	s1,116(sp)
     164:	07012903          	lw	s2,112(sp)
     168:	06c12983          	lw	s3,108(sp)
     16c:	06812a03          	lw	s4,104(sp)
     170:	06412a83          	lw	s5,100(sp)
     174:	06012b03          	lw	s6,96(sp)
     178:	05c12b83          	lw	s7,92(sp)
     17c:	05812c03          	lw	s8,88(sp)
     180:	05412c83          	lw	s9,84(sp)
     184:	05012d03          	lw	s10,80(sp)
     188:	04c12d83          	lw	s11,76(sp)
     18c:	08010113          	addi	sp,sp,128
     190:	00008067          	ret
     194:	00094b83          	lbu	s7,0(s2)
     198:	4afb8863          	beq	s7,a5,648 <xvfprintf+0x608>
     19c:	00c12783          	lw	a5,12(sp)
     1a0:	00190913          	addi	s2,s2,1
     1a4:	0047e793          	ori	a5,a5,4
     1a8:	00f12623          	sw	a5,12(sp)
     1ac:	f65ff06f          	j	110 <xvfprintf+0xd0>
     1b0:	00a00d13          	li	s10,10
     1b4:	00012423          	sw	zero,8(sp)
     1b8:	00c12783          	lw	a5,12(sp)
     1bc:	0087f793          	andi	a5,a5,8
     1c0:	3a078a63          	beqz	a5,574 <xvfprintf+0x534>
     1c4:	01412783          	lw	a5,20(sp)
     1c8:	00778b13          	addi	s6,a5,7
     1cc:	ff8b7b13          	andi	s6,s6,-8
     1d0:	008b0713          	addi	a4,s6,8
     1d4:	06400793          	li	a5,100
     1d8:	00e12a23          	sw	a4,20(sp)
     1dc:	000b2883          	lw	a7,0(s6)
     1e0:	004b2803          	lw	a6,4(s6)
     1e4:	42fb8c63          	beq	s7,a5,61c <xvfprintf+0x5dc>
     1e8:	00c12783          	lw	a5,12(sp)
     1ec:	0017f793          	andi	a5,a5,1
     1f0:	00f12c23          	sw	a5,24(sp)
     1f4:	07800793          	li	a5,120
     1f8:	00088c13          	mv	s8,a7
     1fc:	00080a93          	mv	s5,a6
     200:	00700d93          	li	s11,7
     204:	00fb9463          	bne	s7,a5,20c <xvfprintf+0x1cc>
     208:	02700d93          	li	s11,39
     20c:	0ffdf793          	andi	a5,s11,255
     210:	00f12823          	sw	a5,16(sp)
     214:	00000b13          	li	s6,0
     218:	0100006f          	j	228 <xvfprintf+0x1e8>
     21c:	02000793          	li	a5,32
     220:	38fd8e63          	beq	s11,a5,5bc <xvfprintf+0x57c>
     224:	000d8b13          	mv	s6,s11
     228:	000d0613          	mv	a2,s10
     22c:	00000693          	li	a3,0
     230:	000c0513          	mv	a0,s8
     234:	000a8593          	mv	a1,s5
     238:	659020ef          	jal	ra,3090 <__umoddi3>
     23c:	00050b93          	mv	s7,a0
     240:	000a8593          	mv	a1,s5
     244:	000c0513          	mv	a0,s8
     248:	00000693          	li	a3,0
     24c:	000d0613          	mv	a2,s10
     250:	069020ef          	jal	ra,2ab8 <__udivdi3>
     254:	0ffbfb93          	andi	s7,s7,255
     258:	00900793          	li	a5,9
     25c:	000c0e13          	mv	t3,s8
     260:	000a8693          	mv	a3,s5
     264:	00050c13          	mv	s8,a0
     268:	00058a93          	mv	s5,a1
     26c:	0177f863          	bgeu	a5,s7,27c <xvfprintf+0x23c>
     270:	01012783          	lw	a5,16(sp)
     274:	017787b3          	add	a5,a5,s7
     278:	0ff7fb93          	andi	s7,a5,255
     27c:	001b0d93          	addi	s11,s6,1
     280:	030b8793          	addi	a5,s7,48
     284:	01b985b3          	add	a1,s3,s11
     288:	fef58fa3          	sb	a5,-1(a1)
     28c:	00812783          	lw	a5,8(sp)
     290:	f8d796e3          	bne	a5,a3,21c <xvfprintf+0x1dc>
     294:	f9ae74e3          	bgeu	t3,s10,21c <xvfprintf+0x1dc>
     298:	01812783          	lw	a5,24(sp)
     29c:	00078c63          	beqz	a5,2b4 <xvfprintf+0x274>
     2a0:	04010793          	addi	a5,sp,64
     2a4:	01b78733          	add	a4,a5,s11
     2a8:	02d00793          	li	a5,45
     2ac:	fef70023          	sb	a5,-32(a4)
     2b0:	002b0d93          	addi	s11,s6,2
     2b4:	00c12783          	lw	a5,12(sp)
     2b8:	0027fd13          	andi	s10,a5,2
     2bc:	4a0d1263          	bnez	s10,760 <xvfprintf+0x720>
     2c0:	000d8d13          	mv	s10,s11
     2c4:	009dfc63          	bgeu	s11,s1,2dc <xvfprintf+0x29c>
     2c8:	1a040a63          	beqz	s0,47c <xvfprintf+0x43c>
     2cc:	000c8513          	mv	a0,s9
     2d0:	000400e7          	jalr	s0
     2d4:	001d0d13          	addi	s10,s10,1
     2d8:	ffa498e3          	bne	s1,s10,2c8 <xvfprintf+0x288>
     2dc:	01b98bb3          	add	s7,s3,s11
     2e0:	00a00c13          	li	s8,10
     2e4:	00d00c93          	li	s9,13
     2e8:	0140006f          	j	2fc <xvfprintf+0x2bc>
     2ec:	000d8513          	mv	a0,s11
     2f0:	000400e7          	jalr	s0
     2f4:	fffb8b93          	addi	s7,s7,-1
     2f8:	03798663          	beq	s3,s7,324 <xvfprintf+0x2e4>
     2fc:	fffbcd83          	lbu	s11,-1(s7)
     300:	198d8a63          	beq	s11,s8,494 <xvfprintf+0x454>
     304:	fe0414e3          	bnez	s0,2ec <xvfprintf+0x2ac>
     308:	01ca2783          	lw	a5,28(s4) # 401c <strptr>
     30c:	fe0784e3          	beqz	a5,2f4 <xvfprintf+0x2b4>
     310:	00178713          	addi	a4,a5,1
     314:	00ea2e23          	sw	a4,28(s4)
     318:	01b78023          	sb	s11,0(a5)
     31c:	fffb8b93          	addi	s7,s7,-1
     320:	fd799ee3          	bne	s3,s7,2fc <xvfprintf+0x2bc>
     324:	001d0b93          	addi	s7,s10,1
     328:	e29d72e3          	bgeu	s10,s1,14c <xvfprintf+0x10c>
     32c:	00040e63          	beqz	s0,348 <xvfprintf+0x308>
     330:	02000513          	li	a0,32
     334:	000400e7          	jalr	s0
     338:	001b8793          	addi	a5,s7,1
     33c:	e17488e3          	beq	s1,s7,14c <xvfprintf+0x10c>
     340:	00078b93          	mv	s7,a5
     344:	fe0416e3          	bnez	s0,330 <xvfprintf+0x2f0>
     348:	01ca2783          	lw	a5,28(s4)
     34c:	fe0786e3          	beqz	a5,338 <xvfprintf+0x2f8>
     350:	00178713          	addi	a4,a5,1
     354:	00ea2e23          	sw	a4,28(s4)
     358:	02000713          	li	a4,32
     35c:	00e78023          	sb	a4,0(a5)
     360:	fd9ff06f          	j	338 <xvfprintf+0x2f8>
     364:	01412683          	lw	a3,20(sp)
     368:	00a00713          	li	a4,10
     36c:	0006a783          	lw	a5,0(a3)
     370:	00468b93          	addi	s7,a3,4
     374:	0ff7f493          	andi	s1,a5,255
     378:	3ee48863          	beq	s1,a4,768 <xvfprintf+0x728>
     37c:	3a040663          	beqz	s0,728 <xvfprintf+0x6e8>
     380:	00048513          	mv	a0,s1
     384:	000400e7          	jalr	s0
     388:	01712a23          	sw	s7,20(sp)
     38c:	dc1ff06f          	j	14c <xvfprintf+0x10c>
     390:	01412783          	lw	a5,20(sp)
     394:	0007ab83          	lw	s7,0(a5)
     398:	00478793          	addi	a5,a5,4
     39c:	00f12423          	sw	a5,8(sp)
     3a0:	000b8513          	mv	a0,s7
     3a4:	79c030ef          	jal	ra,3b40 <strlen>
     3a8:	00c12783          	lw	a5,12(sp)
     3ac:	00050b13          	mv	s6,a0
     3b0:	0027fd13          	andi	s10,a5,2
     3b4:	340d1a63          	bnez	s10,708 <xvfprintf+0x6c8>
     3b8:	00957c63          	bgeu	a0,s1,3d0 <xvfprintf+0x390>
     3bc:	18040663          	beqz	s0,548 <xvfprintf+0x508>
     3c0:	000c8513          	mv	a0,s9
     3c4:	000400e7          	jalr	s0
     3c8:	001b0b13          	addi	s6,s6,1
     3cc:	ff6498e3          	bne	s1,s6,3bc <xvfprintf+0x37c>
     3d0:	000bcd03          	lbu	s10,0(s7)
     3d4:	080d0e63          	beqz	s10,470 <xvfprintf+0x430>
     3d8:	040d8a63          	beqz	s11,42c <xvfprintf+0x3ec>
     3dc:	000b8a93          	mv	s5,s7
     3e0:	00a00c13          	li	s8,10
     3e4:	00d00c93          	li	s9,13
     3e8:	01c0006f          	j	404 <xvfprintf+0x3c4>
     3ec:	000d0513          	mv	a0,s10
     3f0:	000400e7          	jalr	s0
     3f4:	000acd03          	lbu	s10,0(s5)
     3f8:	020d0a63          	beqz	s10,42c <xvfprintf+0x3ec>
     3fc:	41ba86b3          	sub	a3,s5,s11
     400:	03768663          	beq	a3,s7,42c <xvfprintf+0x3ec>
     404:	001a8a93          	addi	s5,s5,1
     408:	2f8d0863          	beq	s10,s8,6f8 <xvfprintf+0x6b8>
     40c:	fe0410e3          	bnez	s0,3ec <xvfprintf+0x3ac>
     410:	01ca2683          	lw	a3,28(s4)
     414:	fe0680e3          	beqz	a3,3f4 <xvfprintf+0x3b4>
     418:	01a68023          	sb	s10,0(a3)
     41c:	000acd03          	lbu	s10,0(s5)
     420:	00168613          	addi	a2,a3,1
     424:	00ca2e23          	sw	a2,28(s4)
     428:	fc0d1ae3          	bnez	s10,3fc <xvfprintf+0x3bc>
     42c:	001b0b93          	addi	s7,s6,1
     430:	049b7063          	bgeu	s6,s1,470 <xvfprintf+0x430>
     434:	00040e63          	beqz	s0,450 <xvfprintf+0x410>
     438:	02000513          	li	a0,32
     43c:	000400e7          	jalr	s0
     440:	001b8793          	addi	a5,s7,1
     444:	03748663          	beq	s1,s7,470 <xvfprintf+0x430>
     448:	00078b93          	mv	s7,a5
     44c:	fe0416e3          	bnez	s0,438 <xvfprintf+0x3f8>
     450:	01ca2783          	lw	a5,28(s4)
     454:	fe0786e3          	beqz	a5,440 <xvfprintf+0x400>
     458:	00178713          	addi	a4,a5,1
     45c:	00ea2e23          	sw	a4,28(s4)
     460:	02000713          	li	a4,32
     464:	00e78023          	sb	a4,0(a5)
     468:	001b8793          	addi	a5,s7,1
     46c:	fd749ee3          	bne	s1,s7,448 <xvfprintf+0x408>
     470:	00812783          	lw	a5,8(sp)
     474:	00f12a23          	sw	a5,20(sp)
     478:	cd5ff06f          	j	14c <xvfprintf+0x10c>
     47c:	01ca2783          	lw	a5,28(s4)
     480:	e4078ae3          	beqz	a5,2d4 <xvfprintf+0x294>
     484:	00178693          	addi	a3,a5,1
     488:	00da2e23          	sw	a3,28(s4)
     48c:	01978023          	sb	s9,0(a5)
     490:	e45ff06f          	j	2d4 <xvfprintf+0x294>
     494:	0c040663          	beqz	s0,560 <xvfprintf+0x520>
     498:	00d00513          	li	a0,13
     49c:	000400e7          	jalr	s0
     4a0:	e4dff06f          	j	2ec <xvfprintf+0x2ac>
     4a4:	00a00793          	li	a5,10
     4a8:	1cf48c63          	beq	s1,a5,680 <xvfprintf+0x640>
     4ac:	1a040a63          	beqz	s0,660 <xvfprintf+0x620>
     4b0:	00048513          	mv	a0,s1
     4b4:	000400e7          	jalr	s0
     4b8:	000b8913          	mv	s2,s7
     4bc:	c91ff06f          	j	14c <xvfprintf+0x10c>
     4c0:	fd0b8793          	addi	a5,s7,-48
     4c4:	0ff7f793          	andi	a5,a5,255
     4c8:	00900693          	li	a3,9
     4cc:	00000493          	li	s1,0
     4d0:	00900713          	li	a4,9
     4d4:	c2f6e4e3          	bltu	a3,a5,fc <xvfprintf+0xbc>
     4d8:	00249793          	slli	a5,s1,0x2
     4dc:	009784b3          	add	s1,a5,s1
     4e0:	00149493          	slli	s1,s1,0x1
     4e4:	00190913          	addi	s2,s2,1
     4e8:	017484b3          	add	s1,s1,s7
     4ec:	fff94b83          	lbu	s7,-1(s2)
     4f0:	fd048493          	addi	s1,s1,-48
     4f4:	fd0b8793          	addi	a5,s7,-48
     4f8:	0ff7f793          	andi	a5,a5,255
     4fc:	fcf77ee3          	bgeu	a4,a5,4d8 <xvfprintf+0x498>
     500:	02e00793          	li	a5,46
     504:	fff00d93          	li	s11,-1
     508:	c0fb90e3          	bne	s7,a5,108 <xvfprintf+0xc8>
     50c:	00094b83          	lbu	s7,0(s2)
     510:	02a00793          	li	a5,42
     514:	0afb9863          	bne	s7,a5,5c4 <xvfprintf+0x584>
     518:	01412783          	lw	a5,20(sp)
     51c:	00194b83          	lbu	s7,1(s2)
     520:	00290913          	addi	s2,s2,2
     524:	0007ad83          	lw	s11,0(a5)
     528:	00478793          	addi	a5,a5,4
     52c:	00f12a23          	sw	a5,20(sp)
     530:	bd9ff06f          	j	108 <xvfprintf+0xc8>
     534:	00294b83          	lbu	s7,2(s2)
     538:	03000c93          	li	s9,48
     53c:	00390913          	addi	s2,s2,3
     540:	00012623          	sw	zero,12(sp)
     544:	b89ff06f          	j	cc <xvfprintf+0x8c>
     548:	01ca2783          	lw	a5,28(s4)
     54c:	e6078ee3          	beqz	a5,3c8 <xvfprintf+0x388>
     550:	00178693          	addi	a3,a5,1
     554:	00da2e23          	sw	a3,28(s4)
     558:	01978023          	sb	s9,0(a5)
     55c:	e6dff06f          	j	3c8 <xvfprintf+0x388>
     560:	01ca2703          	lw	a4,28(s4)
     564:	d80708e3          	beqz	a4,2f4 <xvfprintf+0x2b4>
     568:	00170793          	addi	a5,a4,1
     56c:	01970023          	sb	s9,0(a4)
     570:	da1ff06f          	j	310 <xvfprintf+0x2d0>
     574:	01412703          	lw	a4,20(sp)
     578:	06400793          	li	a5,100
     57c:	00470713          	addi	a4,a4,4
     580:	08fb8663          	beq	s7,a5,60c <xvfprintf+0x5cc>
     584:	01412783          	lw	a5,20(sp)
     588:	00000813          	li	a6,0
     58c:	0007a883          	lw	a7,0(a5)
     590:	00c12783          	lw	a5,12(sp)
     594:	00e12a23          	sw	a4,20(sp)
     598:	0017f793          	andi	a5,a5,1
     59c:	00f12c23          	sw	a5,24(sp)
     5a0:	c55ff06f          	j	1f4 <xvfprintf+0x1b4>
     5a4:	00200793          	li	a5,2
     5a8:	00294b83          	lbu	s7,2(s2)
     5ac:	02000c93          	li	s9,32
     5b0:	00390913          	addi	s2,s2,3
     5b4:	00f12623          	sw	a5,12(sp)
     5b8:	b15ff06f          	j	cc <xvfprintf+0x8c>
     5bc:	01f00b13          	li	s6,31
     5c0:	cd9ff06f          	j	298 <xvfprintf+0x258>
     5c4:	fd0b8793          	addi	a5,s7,-48
     5c8:	0ff7f793          	andi	a5,a5,255
     5cc:	00900693          	li	a3,9
     5d0:	00190913          	addi	s2,s2,1
     5d4:	00000d93          	li	s11,0
     5d8:	00900713          	li	a4,9
     5dc:	b2f6e6e3          	bltu	a3,a5,108 <xvfprintf+0xc8>
     5e0:	002d9793          	slli	a5,s11,0x2
     5e4:	01b787b3          	add	a5,a5,s11
     5e8:	00179793          	slli	a5,a5,0x1
     5ec:	00190913          	addi	s2,s2,1
     5f0:	017787b3          	add	a5,a5,s7
     5f4:	fff94b83          	lbu	s7,-1(s2)
     5f8:	fd078d93          	addi	s11,a5,-48
     5fc:	fd0b8793          	addi	a5,s7,-48
     600:	0ff7f793          	andi	a5,a5,255
     604:	fcf77ee3          	bgeu	a4,a5,5e0 <xvfprintf+0x5a0>
     608:	b01ff06f          	j	108 <xvfprintf+0xc8>
     60c:	01412783          	lw	a5,20(sp)
     610:	0007a883          	lw	a7,0(a5)
     614:	00e12a23          	sw	a4,20(sp)
     618:	41f8d813          	srai	a6,a7,0x1f
     61c:	bc0856e3          	bgez	a6,1e8 <xvfprintf+0x1a8>
     620:	011037b3          	snez	a5,a7
     624:	41000833          	neg	a6,a6
     628:	40f80833          	sub	a6,a6,a5
     62c:	00c12783          	lw	a5,12(sp)
     630:	411008b3          	neg	a7,a7
     634:	0017e793          	ori	a5,a5,1
     638:	00f12623          	sw	a5,12(sp)
     63c:	00100793          	li	a5,1
     640:	00f12c23          	sw	a5,24(sp)
     644:	bb1ff06f          	j	1f4 <xvfprintf+0x1b4>
     648:	00c12783          	lw	a5,12(sp)
     64c:	00194b83          	lbu	s7,1(s2)
     650:	00290913          	addi	s2,s2,2
     654:	00c7e793          	ori	a5,a5,12
     658:	00f12623          	sw	a5,12(sp)
     65c:	ab5ff06f          	j	110 <xvfprintf+0xd0>
     660:	01ca2783          	lw	a5,28(s4)
     664:	000b8913          	mv	s2,s7
     668:	ae0782e3          	beqz	a5,14c <xvfprintf+0x10c>
     66c:	00178713          	addi	a4,a5,1
     670:	00ea2e23          	sw	a4,28(s4)
     674:	00978023          	sb	s1,0(a5)
     678:	000b8913          	mv	s2,s7
     67c:	ad1ff06f          	j	14c <xvfprintf+0x10c>
     680:	04040e63          	beqz	s0,6dc <xvfprintf+0x69c>
     684:	00d00513          	li	a0,13
     688:	000400e7          	jalr	s0
     68c:	e25ff06f          	j	4b0 <xvfprintf+0x470>
     690:	01000d13          	li	s10,16
     694:	00012423          	sw	zero,8(sp)
     698:	b21ff06f          	j	1b8 <xvfprintf+0x178>
     69c:	00800d13          	li	s10,8
     6a0:	00012423          	sw	zero,8(sp)
     6a4:	00c12783          	lw	a5,12(sp)
     6a8:	0087f793          	andi	a5,a5,8
     6ac:	ec0784e3          	beqz	a5,574 <xvfprintf+0x534>
     6b0:	01412783          	lw	a5,20(sp)
     6b4:	00778b13          	addi	s6,a5,7
     6b8:	ff8b7b13          	andi	s6,s6,-8
     6bc:	008b0793          	addi	a5,s6,8
     6c0:	000b2883          	lw	a7,0(s6)
     6c4:	004b2803          	lw	a6,4(s6)
     6c8:	00f12a23          	sw	a5,20(sp)
     6cc:	b1dff06f          	j	1e8 <xvfprintf+0x1a8>
     6d0:	00200d13          	li	s10,2
     6d4:	00012423          	sw	zero,8(sp)
     6d8:	fcdff06f          	j	6a4 <xvfprintf+0x664>
     6dc:	01ca2703          	lw	a4,28(s4)
     6e0:	000b8913          	mv	s2,s7
     6e4:	a60704e3          	beqz	a4,14c <xvfprintf+0x10c>
     6e8:	00d00693          	li	a3,13
     6ec:	00170793          	addi	a5,a4,1
     6f0:	00d70023          	sb	a3,0(a4)
     6f4:	f79ff06f          	j	66c <xvfprintf+0x62c>
     6f8:	00040e63          	beqz	s0,714 <xvfprintf+0x6d4>
     6fc:	00d00513          	li	a0,13
     700:	000400e7          	jalr	s0
     704:	ce9ff06f          	j	3ec <xvfprintf+0x3ac>
     708:	000bcd03          	lbu	s10,0(s7)
     70c:	cc0d16e3          	bnez	s10,3d8 <xvfprintf+0x398>
     710:	d1dff06f          	j	42c <xvfprintf+0x3ec>
     714:	01ca2603          	lw	a2,28(s4)
     718:	cc060ee3          	beqz	a2,3f4 <xvfprintf+0x3b4>
     71c:	00160693          	addi	a3,a2,1
     720:	01960023          	sb	s9,0(a2)
     724:	cf5ff06f          	j	418 <xvfprintf+0x3d8>
     728:	01ca2703          	lw	a4,28(s4)
     72c:	01712a23          	sw	s7,20(sp)
     730:	a0070ee3          	beqz	a4,14c <xvfprintf+0x10c>
     734:	00170693          	addi	a3,a4,1
     738:	00da2e23          	sw	a3,28(s4)
     73c:	00f70023          	sb	a5,0(a4)
     740:	01712a23          	sw	s7,20(sp)
     744:	a09ff06f          	j	14c <xvfprintf+0x10c>
     748:	01ca2783          	lw	a5,28(s4)
     74c:	a00780e3          	beqz	a5,14c <xvfprintf+0x10c>
     750:	00178713          	addi	a4,a5,1
     754:	00ea2e23          	sw	a4,28(s4)
     758:	01778023          	sb	s7,0(a5)
     75c:	9f1ff06f          	j	14c <xvfprintf+0x10c>
     760:	000d8d13          	mv	s10,s11
     764:	b79ff06f          	j	2dc <xvfprintf+0x29c>
     768:	02040063          	beqz	s0,788 <xvfprintf+0x748>
     76c:	00d00513          	li	a0,13
     770:	000400e7          	jalr	s0
     774:	c0dff06f          	j	380 <xvfprintf+0x340>
     778:	02040663          	beqz	s0,7a4 <xvfprintf+0x764>
     77c:	00d00513          	li	a0,13
     780:	000400e7          	jalr	s0
     784:	9c1ff06f          	j	144 <xvfprintf+0x104>
     788:	01ca2683          	lw	a3,28(s4)
     78c:	01712a23          	sw	s7,20(sp)
     790:	9a068ee3          	beqz	a3,14c <xvfprintf+0x10c>
     794:	00d00613          	li	a2,13
     798:	00168713          	addi	a4,a3,1
     79c:	00c68023          	sb	a2,0(a3)
     7a0:	f95ff06f          	j	734 <xvfprintf+0x6f4>
     7a4:	01ca2703          	lw	a4,28(s4)
     7a8:	9a0702e3          	beqz	a4,14c <xvfprintf+0x10c>
     7ac:	00d00693          	li	a3,13
     7b0:	00170793          	addi	a5,a4,1
     7b4:	00d70023          	sb	a3,0(a4)
     7b8:	f99ff06f          	j	750 <xvfprintf+0x710>

000007bc <xputc>:
     7bc:	ff010113          	addi	sp,sp,-16
     7c0:	00812423          	sw	s0,8(sp)
     7c4:	00912223          	sw	s1,4(sp)
     7c8:	00004737          	lui	a4,0x4
     7cc:	00112623          	sw	ra,12(sp)
     7d0:	00a00793          	li	a5,10
     7d4:	02072483          	lw	s1,32(a4) # 4020 <xfunc_output>
     7d8:	00050413          	mv	s0,a0
     7dc:	04f50863          	beq	a0,a5,82c <xputc+0x70>
     7e0:	02048063          	beqz	s1,800 <xputc+0x44>
     7e4:	00040513          	mv	a0,s0
     7e8:	00812403          	lw	s0,8(sp)
     7ec:	00c12083          	lw	ra,12(sp)
     7f0:	00048793          	mv	a5,s1
     7f4:	00412483          	lw	s1,4(sp)
     7f8:	01010113          	addi	sp,sp,16
     7fc:	00078067          	jr	a5
     800:	00004737          	lui	a4,0x4
     804:	01c72783          	lw	a5,28(a4) # 401c <strptr>
     808:	00078863          	beqz	a5,818 <xputc+0x5c>
     80c:	00178693          	addi	a3,a5,1
     810:	00d72e23          	sw	a3,28(a4)
     814:	00878023          	sb	s0,0(a5)
     818:	00c12083          	lw	ra,12(sp)
     81c:	00812403          	lw	s0,8(sp)
     820:	00412483          	lw	s1,4(sp)
     824:	01010113          	addi	sp,sp,16
     828:	00008067          	ret
     82c:	02048463          	beqz	s1,854 <xputc+0x98>
     830:	00d00513          	li	a0,13
     834:	000480e7          	jalr	s1
     838:	00040513          	mv	a0,s0
     83c:	00812403          	lw	s0,8(sp)
     840:	00c12083          	lw	ra,12(sp)
     844:	00048793          	mv	a5,s1
     848:	00412483          	lw	s1,4(sp)
     84c:	01010113          	addi	sp,sp,16
     850:	00078067          	jr	a5
     854:	00004737          	lui	a4,0x4
     858:	01c72683          	lw	a3,28(a4) # 401c <strptr>
     85c:	fa068ee3          	beqz	a3,818 <xputc+0x5c>
     860:	00d00613          	li	a2,13
     864:	00168793          	addi	a5,a3,1
     868:	00c68023          	sb	a2,0(a3)
     86c:	fa1ff06f          	j	80c <xputc+0x50>

00000870 <xfputc>:
     870:	fe010113          	addi	sp,sp,-32
     874:	00912c23          	sw	s1,24(sp)
     878:	00112e23          	sw	ra,28(sp)
     87c:	00a00793          	li	a5,10
     880:	00050493          	mv	s1,a0
     884:	04f58463          	beq	a1,a5,8cc <xfputc+0x5c>
     888:	00050e63          	beqz	a0,8a4 <xfputc+0x34>
     88c:	01c12083          	lw	ra,28(sp)
     890:	00048793          	mv	a5,s1
     894:	01812483          	lw	s1,24(sp)
     898:	00058513          	mv	a0,a1
     89c:	02010113          	addi	sp,sp,32
     8a0:	00078067          	jr	a5
     8a4:	00004737          	lui	a4,0x4
     8a8:	01c72783          	lw	a5,28(a4) # 401c <strptr>
     8ac:	00078863          	beqz	a5,8bc <xfputc+0x4c>
     8b0:	00178693          	addi	a3,a5,1
     8b4:	00d72e23          	sw	a3,28(a4)
     8b8:	00b78023          	sb	a1,0(a5)
     8bc:	01c12083          	lw	ra,28(sp)
     8c0:	01812483          	lw	s1,24(sp)
     8c4:	02010113          	addi	sp,sp,32
     8c8:	00008067          	ret
     8cc:	02050663          	beqz	a0,8f8 <xfputc+0x88>
     8d0:	00d00513          	li	a0,13
     8d4:	00b12623          	sw	a1,12(sp)
     8d8:	000480e7          	jalr	s1
     8dc:	00c12583          	lw	a1,12(sp)
     8e0:	01c12083          	lw	ra,28(sp)
     8e4:	00048793          	mv	a5,s1
     8e8:	01812483          	lw	s1,24(sp)
     8ec:	00058513          	mv	a0,a1
     8f0:	02010113          	addi	sp,sp,32
     8f4:	00078067          	jr	a5
     8f8:	00004737          	lui	a4,0x4
     8fc:	01c72683          	lw	a3,28(a4) # 401c <strptr>
     900:	fa068ee3          	beqz	a3,8bc <xfputc+0x4c>
     904:	00d00613          	li	a2,13
     908:	00168793          	addi	a5,a3,1
     90c:	00c68023          	sb	a2,0(a3)
     910:	fa1ff06f          	j	8b0 <xfputc+0x40>

00000914 <xputs>:
     914:	fe010113          	addi	sp,sp,-32
     918:	01212823          	sw	s2,16(sp)
     91c:	00112e23          	sw	ra,28(sp)
     920:	00812c23          	sw	s0,24(sp)
     924:	00912a23          	sw	s1,20(sp)
     928:	01312623          	sw	s3,12(sp)
     92c:	01412423          	sw	s4,8(sp)
     930:	01512223          	sw	s5,4(sp)
     934:	00054403          	lbu	s0,0(a0)
     938:	000047b7          	lui	a5,0x4
     93c:	0207a903          	lw	s2,32(a5) # 4020 <xfunc_output>
     940:	04040863          	beqz	s0,990 <xputs+0x7c>
     944:	00050493          	mv	s1,a0
     948:	00a00993          	li	s3,10
     94c:	00004a37          	lui	s4,0x4
     950:	00d00a93          	li	s5,13
     954:	0140006f          	j	968 <xputs+0x54>
     958:	00040513          	mv	a0,s0
     95c:	000900e7          	jalr	s2
     960:	0004c403          	lbu	s0,0(s1)
     964:	02040663          	beqz	s0,990 <xputs+0x7c>
     968:	00148493          	addi	s1,s1,1
     96c:	05340463          	beq	s0,s3,9b4 <xputs+0xa0>
     970:	fe0914e3          	bnez	s2,958 <xputs+0x44>
     974:	01ca2783          	lw	a5,28(s4) # 401c <strptr>
     978:	fe0784e3          	beqz	a5,960 <xputs+0x4c>
     97c:	00878023          	sb	s0,0(a5)
     980:	0004c403          	lbu	s0,0(s1)
     984:	00178713          	addi	a4,a5,1
     988:	00ea2e23          	sw	a4,28(s4)
     98c:	fc041ee3          	bnez	s0,968 <xputs+0x54>
     990:	01c12083          	lw	ra,28(sp)
     994:	01812403          	lw	s0,24(sp)
     998:	01412483          	lw	s1,20(sp)
     99c:	01012903          	lw	s2,16(sp)
     9a0:	00c12983          	lw	s3,12(sp)
     9a4:	00812a03          	lw	s4,8(sp)
     9a8:	00412a83          	lw	s5,4(sp)
     9ac:	02010113          	addi	sp,sp,32
     9b0:	00008067          	ret
     9b4:	00d00513          	li	a0,13
     9b8:	00090663          	beqz	s2,9c4 <xputs+0xb0>
     9bc:	000900e7          	jalr	s2
     9c0:	f99ff06f          	j	958 <xputs+0x44>
     9c4:	01ca2703          	lw	a4,28(s4)
     9c8:	f8070ce3          	beqz	a4,960 <xputs+0x4c>
     9cc:	00170793          	addi	a5,a4,1
     9d0:	01570023          	sb	s5,0(a4)
     9d4:	fa9ff06f          	j	97c <xputs+0x68>

000009d8 <xfputs>:
     9d8:	fe010113          	addi	sp,sp,-32
     9dc:	00812c23          	sw	s0,24(sp)
     9e0:	0005c403          	lbu	s0,0(a1)
     9e4:	00112e23          	sw	ra,28(sp)
     9e8:	00912a23          	sw	s1,20(sp)
     9ec:	01212823          	sw	s2,16(sp)
     9f0:	01312623          	sw	s3,12(sp)
     9f4:	01412423          	sw	s4,8(sp)
     9f8:	01512223          	sw	s5,4(sp)
     9fc:	04040a63          	beqz	s0,a50 <xfputs+0x78>
     a00:	00058493          	mv	s1,a1
     a04:	00050913          	mv	s2,a0
     a08:	00a00993          	li	s3,10
     a0c:	00004a37          	lui	s4,0x4
     a10:	00d00a93          	li	s5,13
     a14:	0140006f          	j	a28 <xfputs+0x50>
     a18:	00040513          	mv	a0,s0
     a1c:	000900e7          	jalr	s2
     a20:	0004c403          	lbu	s0,0(s1)
     a24:	02040663          	beqz	s0,a50 <xfputs+0x78>
     a28:	00148493          	addi	s1,s1,1
     a2c:	05340463          	beq	s0,s3,a74 <xfputs+0x9c>
     a30:	fe0914e3          	bnez	s2,a18 <xfputs+0x40>
     a34:	01ca2783          	lw	a5,28(s4) # 401c <strptr>
     a38:	fe0784e3          	beqz	a5,a20 <xfputs+0x48>
     a3c:	00878023          	sb	s0,0(a5)
     a40:	0004c403          	lbu	s0,0(s1)
     a44:	00178713          	addi	a4,a5,1
     a48:	00ea2e23          	sw	a4,28(s4)
     a4c:	fc041ee3          	bnez	s0,a28 <xfputs+0x50>
     a50:	01c12083          	lw	ra,28(sp)
     a54:	01812403          	lw	s0,24(sp)
     a58:	01412483          	lw	s1,20(sp)
     a5c:	01012903          	lw	s2,16(sp)
     a60:	00c12983          	lw	s3,12(sp)
     a64:	00812a03          	lw	s4,8(sp)
     a68:	00412a83          	lw	s5,4(sp)
     a6c:	02010113          	addi	sp,sp,32
     a70:	00008067          	ret
     a74:	00d00513          	li	a0,13
     a78:	00090663          	beqz	s2,a84 <xfputs+0xac>
     a7c:	000900e7          	jalr	s2
     a80:	f99ff06f          	j	a18 <xfputs+0x40>
     a84:	01ca2703          	lw	a4,28(s4)
     a88:	f8070ce3          	beqz	a4,a20 <xfputs+0x48>
     a8c:	00170793          	addi	a5,a4,1
     a90:	01570023          	sb	s5,0(a4)
     a94:	fa9ff06f          	j	a3c <xfputs+0x64>

00000a98 <xprintf>:
     a98:	00050e13          	mv	t3,a0
     a9c:	00004537          	lui	a0,0x4
     aa0:	fc010113          	addi	sp,sp,-64
     aa4:	02052503          	lw	a0,32(a0) # 4020 <xfunc_output>
     aa8:	02410313          	addi	t1,sp,36
     aac:	02b12223          	sw	a1,36(sp)
     ab0:	02c12423          	sw	a2,40(sp)
     ab4:	000e0593          	mv	a1,t3
     ab8:	00030613          	mv	a2,t1
     abc:	00112e23          	sw	ra,28(sp)
     ac0:	02d12623          	sw	a3,44(sp)
     ac4:	02e12823          	sw	a4,48(sp)
     ac8:	02f12a23          	sw	a5,52(sp)
     acc:	03012c23          	sw	a6,56(sp)
     ad0:	03112e23          	sw	a7,60(sp)
     ad4:	00612623          	sw	t1,12(sp)
     ad8:	d68ff0ef          	jal	ra,40 <xvfprintf>
     adc:	01c12083          	lw	ra,28(sp)
     ae0:	04010113          	addi	sp,sp,64
     ae4:	00008067          	ret

00000ae8 <xfprintf>:
     ae8:	fc010113          	addi	sp,sp,-64
     aec:	02810313          	addi	t1,sp,40
     af0:	02c12423          	sw	a2,40(sp)
     af4:	00030613          	mv	a2,t1
     af8:	00112e23          	sw	ra,28(sp)
     afc:	02d12623          	sw	a3,44(sp)
     b00:	02e12823          	sw	a4,48(sp)
     b04:	02f12a23          	sw	a5,52(sp)
     b08:	03012c23          	sw	a6,56(sp)
     b0c:	03112e23          	sw	a7,60(sp)
     b10:	00612623          	sw	t1,12(sp)
     b14:	d2cff0ef          	jal	ra,40 <xvfprintf>
     b18:	01c12083          	lw	ra,28(sp)
     b1c:	04010113          	addi	sp,sp,64
     b20:	00008067          	ret

00000b24 <xsprintf>:
     b24:	fc010113          	addi	sp,sp,-64
     b28:	02810313          	addi	t1,sp,40
     b2c:	00812c23          	sw	s0,24(sp)
     b30:	00050e13          	mv	t3,a0
     b34:	00004437          	lui	s0,0x4
     b38:	02c12423          	sw	a2,40(sp)
     b3c:	00000513          	li	a0,0
     b40:	00030613          	mv	a2,t1
     b44:	00112e23          	sw	ra,28(sp)
     b48:	02f12a23          	sw	a5,52(sp)
     b4c:	02d12623          	sw	a3,44(sp)
     b50:	02e12823          	sw	a4,48(sp)
     b54:	03012c23          	sw	a6,56(sp)
     b58:	03112e23          	sw	a7,60(sp)
     b5c:	01c42e23          	sw	t3,28(s0) # 401c <strptr>
     b60:	00612623          	sw	t1,12(sp)
     b64:	cdcff0ef          	jal	ra,40 <xvfprintf>
     b68:	01c42783          	lw	a5,28(s0)
     b6c:	00042e23          	sw	zero,28(s0)
     b70:	00078023          	sb	zero,0(a5)
     b74:	01c12083          	lw	ra,28(sp)
     b78:	01812403          	lw	s0,24(sp)
     b7c:	04010113          	addi	sp,sp,64
     b80:	00008067          	ret

00000b84 <__expr>:
     b84:	00004537          	lui	a0,0x4
     b88:	ff010113          	addi	sp,sp,-16
     b8c:	c5050513          	addi	a0,a0,-944 # 3c50 <strlen+0x110>
     b90:	00112623          	sw	ra,12(sp)
     b94:	f05ff0ef          	jal	ra,a98 <xprintf>
     b98:	00004537          	lui	a0,0x4
     b9c:	c6850513          	addi	a0,a0,-920 # 3c68 <strlen+0x128>
     ba0:	ef9ff0ef          	jal	ra,a98 <xprintf>
     ba4:	0000006f          	j	ba4 <__expr+0x20>

00000ba8 <wait_ms>:
     ba8:	00011637          	lui	a2,0x11
     bac:	fd010113          	addi	sp,sp,-48
     bb0:	17060613          	addi	a2,a2,368 # 11170 <fast_osc_frequency+0xd142>
     bb4:	00000693          	li	a3,0
     bb8:	02112623          	sw	ra,44(sp)
     bbc:	02812423          	sw	s0,40(sp)
     bc0:	5f1020ef          	jal	ra,39b0 <__muldi3>
     bc4:	00a12c23          	sw	a0,24(sp)
     bc8:	00b12e23          	sw	a1,28(sp)
     bcc:	c6cff0ef          	jal	ra,38 <get_timeh>
     bd0:	00050413          	mv	s0,a0
     bd4:	c5cff0ef          	jal	ra,30 <get_timel>
     bd8:	00a12423          	sw	a0,8(sp)
     bdc:	00812623          	sw	s0,12(sp)
     be0:	c58ff0ef          	jal	ra,38 <get_timeh>
     be4:	00050413          	mv	s0,a0
     be8:	c48ff0ef          	jal	ra,30 <get_timel>
     bec:	00a12823          	sw	a0,16(sp)
     bf0:	00812a23          	sw	s0,20(sp)
     bf4:	01012783          	lw	a5,16(sp)
     bf8:	01412803          	lw	a6,20(sp)
     bfc:	00812303          	lw	t1,8(sp)
     c00:	00c12383          	lw	t2,12(sp)
     c04:	01812503          	lw	a0,24(sp)
     c08:	40678633          	sub	a2,a5,t1
     c0c:	01c12583          	lw	a1,28(sp)
     c10:	00c7b733          	sltu	a4,a5,a2
     c14:	407807b3          	sub	a5,a6,t2
     c18:	40e787b3          	sub	a5,a5,a4
     c1c:	00f5e663          	bltu	a1,a5,c28 <wait_ms+0x80>
     c20:	fcb790e3          	bne	a5,a1,be0 <wait_ms+0x38>
     c24:	fac57ee3          	bgeu	a0,a2,be0 <wait_ms+0x38>
     c28:	02c12083          	lw	ra,44(sp)
     c2c:	02812403          	lw	s0,40(sp)
     c30:	03010113          	addi	sp,sp,48
     c34:	00008067          	ret

00000c38 <get_time_ms>:
     c38:	ff010113          	addi	sp,sp,-16
     c3c:	00112623          	sw	ra,12(sp)
     c40:	00812423          	sw	s0,8(sp)
     c44:	bf4ff0ef          	jal	ra,38 <get_timeh>
     c48:	00050413          	mv	s0,a0
     c4c:	be4ff0ef          	jal	ra,30 <get_timel>
     c50:	00011637          	lui	a2,0x11
     c54:	00040593          	mv	a1,s0
     c58:	17060613          	addi	a2,a2,368 # 11170 <fast_osc_frequency+0xd142>
     c5c:	00000693          	li	a3,0
     c60:	659010ef          	jal	ra,2ab8 <__udivdi3>
     c64:	00c12083          	lw	ra,12(sp)
     c68:	00812403          	lw	s0,8(sp)
     c6c:	01010113          	addi	sp,sp,16
     c70:	00008067          	ret

00000c74 <uart_putc>:
     c74:	fe010113          	addi	sp,sp,-32
     c78:	01212823          	sw	s2,16(sp)
     c7c:	00008937          	lui	s2,0x8
     c80:	00812c23          	sw	s0,24(sp)
     c84:	00912a23          	sw	s1,20(sp)
     c88:	00112e23          	sw	ra,28(sp)
     c8c:	00050493          	mv	s1,a0
     c90:	02890413          	addi	s0,s2,40 # 8028 <fast_osc_frequency+0x3ffa>
     c94:	00040513          	mv	a0,s0
     c98:	b90ff0ef          	jal	ra,28 <get32>
     c9c:	02057513          	andi	a0,a0,32
     ca0:	00a12623          	sw	a0,12(sp)
     ca4:	00c12783          	lw	a5,12(sp)
     ca8:	fe0786e3          	beqz	a5,c94 <uart_putc+0x20>
     cac:	01812403          	lw	s0,24(sp)
     cb0:	01c12083          	lw	ra,28(sp)
     cb4:	00048593          	mv	a1,s1
     cb8:	02490513          	addi	a0,s2,36
     cbc:	01412483          	lw	s1,20(sp)
     cc0:	01012903          	lw	s2,16(sp)
     cc4:	02010113          	addi	sp,sp,32
     cc8:	b58ff06f          	j	20 <put32>

00000ccc <i2c_init>:
     ccc:	ff010113          	addi	sp,sp,-16
     cd0:	00912223          	sw	s1,4(sp)
     cd4:	00850493          	addi	s1,a0,8
     cd8:	00812423          	sw	s0,8(sp)
     cdc:	00050413          	mv	s0,a0
     ce0:	00048513          	mv	a0,s1
     ce4:	00112623          	sw	ra,12(sp)
     ce8:	b40ff0ef          	jal	ra,28 <get32>
     cec:	ffe57593          	andi	a1,a0,-2
     cf0:	0025e593          	ori	a1,a1,2
     cf4:	00048513          	mv	a0,s1
     cf8:	b28ff0ef          	jal	ra,20 <put32>
     cfc:	02040513          	addi	a0,s0,32
     d00:	15d00593          	li	a1,349
     d04:	b1cff0ef          	jal	ra,20 <put32>
     d08:	02440513          	addi	a0,s0,36
     d0c:	15d00593          	li	a1,349
     d10:	b10ff0ef          	jal	ra,20 <put32>
     d14:	15d00593          	li	a1,349
     d18:	02840513          	addi	a0,s0,40
     d1c:	b04ff0ef          	jal	ra,20 <put32>
     d20:	00048513          	mv	a0,s1
     d24:	b04ff0ef          	jal	ra,28 <get32>
     d28:	00812403          	lw	s0,8(sp)
     d2c:	00c12083          	lw	ra,12(sp)
     d30:	00356593          	ori	a1,a0,3
     d34:	00048513          	mv	a0,s1
     d38:	00412483          	lw	s1,4(sp)
     d3c:	01010113          	addi	sp,sp,16
     d40:	ae0ff06f          	j	20 <put32>

00000d44 <i2c_disable_isr>:
     d44:	00008067          	ret

00000d48 <i2c_start_transmit>:
     d48:	fe010113          	addi	sp,sp,-32
     d4c:	00812c23          	sw	s0,24(sp)
     d50:	00912a23          	sw	s1,20(sp)
     d54:	01212823          	sw	s2,16(sp)
     d58:	01312623          	sw	s3,12(sp)
     d5c:	00112e23          	sw	ra,28(sp)
     d60:	00050913          	mv	s2,a0
     d64:	00058493          	mv	s1,a1
     d68:	00060993          	mv	s3,a2
     d6c:	01050413          	addi	s0,a0,16
     d70:	00040513          	mv	a0,s0
     d74:	ab4ff0ef          	jal	ra,28 <get32>
     d78:	00157513          	andi	a0,a0,1
     d7c:	fe050ae3          	beqz	a0,d70 <i2c_start_transmit+0x28>
     d80:	00149493          	slli	s1,s1,0x1
     d84:	00100793          	li	a5,1
     d88:	20148593          	addi	a1,s1,513
     d8c:	00f98463          	beq	s3,a5,d94 <i2c_start_transmit+0x4c>
     d90:	20048593          	addi	a1,s1,512
     d94:	01812403          	lw	s0,24(sp)
     d98:	01c12083          	lw	ra,28(sp)
     d9c:	01412483          	lw	s1,20(sp)
     da0:	00c12983          	lw	s3,12(sp)
     da4:	00090513          	mv	a0,s2
     da8:	01012903          	lw	s2,16(sp)
     dac:	02010113          	addi	sp,sp,32
     db0:	a70ff06f          	j	20 <put32>

00000db4 <i2c_start_receive>:
     db4:	00000513          	li	a0,0
     db8:	00008067          	ret

00000dbc <i2c_write>:
     dbc:	fe010113          	addi	sp,sp,-32
     dc0:	00812c23          	sw	s0,24(sp)
     dc4:	00912a23          	sw	s1,20(sp)
     dc8:	01212823          	sw	s2,16(sp)
     dcc:	01312623          	sw	s3,12(sp)
     dd0:	00112e23          	sw	ra,28(sp)
     dd4:	00050493          	mv	s1,a0
     dd8:	00058913          	mv	s2,a1
     ddc:	00060993          	mv	s3,a2
     de0:	01050413          	addi	s0,a0,16
     de4:	00040513          	mv	a0,s0
     de8:	a40ff0ef          	jal	ra,28 <get32>
     dec:	00157513          	andi	a0,a0,1
     df0:	fe050ae3          	beqz	a0,de4 <i2c_write+0x28>
     df4:	02098863          	beqz	s3,e24 <i2c_write+0x68>
     df8:	00048513          	mv	a0,s1
     dfc:	10090593          	addi	a1,s2,256
     e00:	a20ff0ef          	jal	ra,20 <put32>
     e04:	01c12083          	lw	ra,28(sp)
     e08:	01812403          	lw	s0,24(sp)
     e0c:	01412483          	lw	s1,20(sp)
     e10:	01012903          	lw	s2,16(sp)
     e14:	00c12983          	lw	s3,12(sp)
     e18:	00000513          	li	a0,0
     e1c:	02010113          	addi	sp,sp,32
     e20:	00008067          	ret
     e24:	00048513          	mv	a0,s1
     e28:	00090593          	mv	a1,s2
     e2c:	9f4ff0ef          	jal	ra,20 <put32>
     e30:	01c12083          	lw	ra,28(sp)
     e34:	01812403          	lw	s0,24(sp)
     e38:	01412483          	lw	s1,20(sp)
     e3c:	01012903          	lw	s2,16(sp)
     e40:	00c12983          	lw	s3,12(sp)
     e44:	00000513          	li	a0,0
     e48:	02010113          	addi	sp,sp,32
     e4c:	00008067          	ret

00000e50 <i2c_read>:
     e50:	fe010113          	addi	sp,sp,-32
     e54:	00812c23          	sw	s0,24(sp)
     e58:	00912a23          	sw	s1,20(sp)
     e5c:	01212823          	sw	s2,16(sp)
     e60:	01312623          	sw	s3,12(sp)
     e64:	00112e23          	sw	ra,28(sp)
     e68:	00050493          	mv	s1,a0
     e6c:	00058913          	mv	s2,a1
     e70:	00450993          	addi	s3,a0,4
     e74:	01050413          	addi	s0,a0,16
     e78:	00040513          	mv	a0,s0
     e7c:	9acff0ef          	jal	ra,28 <get32>
     e80:	00157513          	andi	a0,a0,1
     e84:	fe050ae3          	beqz	a0,e78 <i2c_read+0x28>
     e88:	04090063          	beqz	s2,ec8 <i2c_read+0x78>
     e8c:	10000593          	li	a1,256
     e90:	00048513          	mv	a0,s1
     e94:	98cff0ef          	jal	ra,20 <put32>
     e98:	00040513          	mv	a0,s0
     e9c:	98cff0ef          	jal	ra,28 <get32>
     ea0:	00257513          	andi	a0,a0,2
     ea4:	fe050ae3          	beqz	a0,e98 <i2c_read+0x48>
     ea8:	01812403          	lw	s0,24(sp)
     eac:	01c12083          	lw	ra,28(sp)
     eb0:	01412483          	lw	s1,20(sp)
     eb4:	01012903          	lw	s2,16(sp)
     eb8:	00098513          	mv	a0,s3
     ebc:	00c12983          	lw	s3,12(sp)
     ec0:	02010113          	addi	sp,sp,32
     ec4:	964ff06f          	j	28 <get32>
     ec8:	00000593          	li	a1,0
     ecc:	00048513          	mv	a0,s1
     ed0:	950ff0ef          	jal	ra,20 <put32>
     ed4:	fc5ff06f          	j	e98 <i2c_read+0x48>

00000ed8 <VL53L1X_startTimeout>:
     ed8:	ff010113          	addi	sp,sp,-16
     edc:	00112623          	sw	ra,12(sp)
     ee0:	d59ff0ef          	jal	ra,c38 <get_time_ms>
     ee4:	00c12083          	lw	ra,12(sp)
     ee8:	000047b7          	lui	a5,0x4
     eec:	02a79523          	sh	a0,42(a5) # 402a <timeout_start_ms>
     ef0:	01010113          	addi	sp,sp,16
     ef4:	00008067          	ret

00000ef8 <VL53L1X_checkTimeoutExpired>:
     ef8:	ff010113          	addi	sp,sp,-16
     efc:	00812423          	sw	s0,8(sp)
     f00:	00004437          	lui	s0,0x4
     f04:	02845783          	lhu	a5,40(s0) # 4028 <io_timeout>
     f08:	00112623          	sw	ra,12(sp)
     f0c:	00000513          	li	a0,0
     f10:	00079a63          	bnez	a5,f24 <VL53L1X_checkTimeoutExpired+0x2c>
     f14:	00c12083          	lw	ra,12(sp)
     f18:	00812403          	lw	s0,8(sp)
     f1c:	01010113          	addi	sp,sp,16
     f20:	00008067          	ret
     f24:	d15ff0ef          	jal	ra,c38 <get_time_ms>
     f28:	000047b7          	lui	a5,0x4
     f2c:	02a7d703          	lhu	a4,42(a5) # 402a <timeout_start_ms>
     f30:	00c12083          	lw	ra,12(sp)
     f34:	02845783          	lhu	a5,40(s0)
     f38:	40e50533          	sub	a0,a0,a4
     f3c:	00812403          	lw	s0,8(sp)
     f40:	01051513          	slli	a0,a0,0x10
     f44:	01055513          	srli	a0,a0,0x10
     f48:	00a7b533          	sltu	a0,a5,a0
     f4c:	01010113          	addi	sp,sp,16
     f50:	00008067          	ret

00000f54 <VL53L1X_setTimeout>:
     f54:	000047b7          	lui	a5,0x4
     f58:	02a79423          	sh	a0,40(a5) # 4028 <io_timeout>
     f5c:	00008067          	ret

00000f60 <VL53L1X_getTimeout>:
     f60:	000047b7          	lui	a5,0x4
     f64:	0287d503          	lhu	a0,40(a5) # 4028 <io_timeout>
     f68:	00008067          	ret

00000f6c <VL53L1X_countRateFixedToFloat>:
     f6c:	ff010113          	addi	sp,sp,-16
     f70:	00112623          	sw	ra,12(sp)
     f74:	13d020ef          	jal	ra,38b0 <__floatunsisf>
     f78:	000047b7          	lui	a5,0x4
     f7c:	ed07a583          	lw	a1,-304(a5) # 3ed0 <__clz_tab+0x100>
     f80:	600020ef          	jal	ra,3580 <__mulsf3>
     f84:	00c12083          	lw	ra,12(sp)
     f88:	01010113          	addi	sp,sp,16
     f8c:	00008067          	ret

00000f90 <VL53L1X_writeReg>:
     f90:	ff010113          	addi	sp,sp,-16
     f94:	00812423          	sw	s0,8(sp)
     f98:	00008437          	lui	s0,0x8
     f9c:	00912223          	sw	s1,4(sp)
     fa0:	01212023          	sw	s2,0(sp)
     fa4:	00050493          	mv	s1,a0
     fa8:	00058913          	mv	s2,a1
     fac:	04040513          	addi	a0,s0,64 # 8040 <fast_osc_frequency+0x4012>
     fb0:	00000613          	li	a2,0
     fb4:	02900593          	li	a1,41
     fb8:	00112623          	sw	ra,12(sp)
     fbc:	d8dff0ef          	jal	ra,d48 <i2c_start_transmit>
     fc0:	0084d593          	srli	a1,s1,0x8
     fc4:	00000613          	li	a2,0
     fc8:	04040513          	addi	a0,s0,64
     fcc:	df1ff0ef          	jal	ra,dbc <i2c_write>
     fd0:	0ff4f593          	andi	a1,s1,255
     fd4:	00000613          	li	a2,0
     fd8:	04040513          	addi	a0,s0,64
     fdc:	de1ff0ef          	jal	ra,dbc <i2c_write>
     fe0:	04040513          	addi	a0,s0,64
     fe4:	00812403          	lw	s0,8(sp)
     fe8:	00c12083          	lw	ra,12(sp)
     fec:	00412483          	lw	s1,4(sp)
     ff0:	00090593          	mv	a1,s2
     ff4:	00012903          	lw	s2,0(sp)
     ff8:	00100613          	li	a2,1
     ffc:	01010113          	addi	sp,sp,16
    1000:	dbdff06f          	j	dbc <i2c_write>

00001004 <VL53L1X_writeReg16Bit>:
    1004:	ff010113          	addi	sp,sp,-16
    1008:	00812423          	sw	s0,8(sp)
    100c:	00008437          	lui	s0,0x8
    1010:	00912223          	sw	s1,4(sp)
    1014:	01212023          	sw	s2,0(sp)
    1018:	00058493          	mv	s1,a1
    101c:	00050913          	mv	s2,a0
    1020:	00000613          	li	a2,0
    1024:	04040513          	addi	a0,s0,64 # 8040 <fast_osc_frequency+0x4012>
    1028:	02900593          	li	a1,41
    102c:	00112623          	sw	ra,12(sp)
    1030:	d19ff0ef          	jal	ra,d48 <i2c_start_transmit>
    1034:	00895593          	srli	a1,s2,0x8
    1038:	00000613          	li	a2,0
    103c:	04040513          	addi	a0,s0,64
    1040:	d7dff0ef          	jal	ra,dbc <i2c_write>
    1044:	0ff97593          	andi	a1,s2,255
    1048:	00000613          	li	a2,0
    104c:	04040513          	addi	a0,s0,64
    1050:	d6dff0ef          	jal	ra,dbc <i2c_write>
    1054:	0084d593          	srli	a1,s1,0x8
    1058:	00000613          	li	a2,0
    105c:	04040513          	addi	a0,s0,64
    1060:	d5dff0ef          	jal	ra,dbc <i2c_write>
    1064:	04040513          	addi	a0,s0,64
    1068:	00812403          	lw	s0,8(sp)
    106c:	00c12083          	lw	ra,12(sp)
    1070:	00012903          	lw	s2,0(sp)
    1074:	0ff4f593          	andi	a1,s1,255
    1078:	00412483          	lw	s1,4(sp)
    107c:	00100613          	li	a2,1
    1080:	01010113          	addi	sp,sp,16
    1084:	d39ff06f          	j	dbc <i2c_write>

00001088 <VL53L1X_writeReg32Bit>:
    1088:	ff010113          	addi	sp,sp,-16
    108c:	00812423          	sw	s0,8(sp)
    1090:	00008437          	lui	s0,0x8
    1094:	00912223          	sw	s1,4(sp)
    1098:	01212023          	sw	s2,0(sp)
    109c:	00058493          	mv	s1,a1
    10a0:	00050913          	mv	s2,a0
    10a4:	00000613          	li	a2,0
    10a8:	04040513          	addi	a0,s0,64 # 8040 <fast_osc_frequency+0x4012>
    10ac:	02900593          	li	a1,41
    10b0:	00112623          	sw	ra,12(sp)
    10b4:	c95ff0ef          	jal	ra,d48 <i2c_start_transmit>
    10b8:	00895593          	srli	a1,s2,0x8
    10bc:	00000613          	li	a2,0
    10c0:	04040513          	addi	a0,s0,64
    10c4:	cf9ff0ef          	jal	ra,dbc <i2c_write>
    10c8:	0ff97593          	andi	a1,s2,255
    10cc:	00000613          	li	a2,0
    10d0:	04040513          	addi	a0,s0,64
    10d4:	ce9ff0ef          	jal	ra,dbc <i2c_write>
    10d8:	0184d593          	srli	a1,s1,0x18
    10dc:	00000613          	li	a2,0
    10e0:	04040513          	addi	a0,s0,64
    10e4:	cd9ff0ef          	jal	ra,dbc <i2c_write>
    10e8:	0104d593          	srli	a1,s1,0x10
    10ec:	00000613          	li	a2,0
    10f0:	0ff5f593          	andi	a1,a1,255
    10f4:	04040513          	addi	a0,s0,64
    10f8:	cc5ff0ef          	jal	ra,dbc <i2c_write>
    10fc:	0084d593          	srli	a1,s1,0x8
    1100:	00000613          	li	a2,0
    1104:	0ff5f593          	andi	a1,a1,255
    1108:	04040513          	addi	a0,s0,64
    110c:	cb1ff0ef          	jal	ra,dbc <i2c_write>
    1110:	04040513          	addi	a0,s0,64
    1114:	00812403          	lw	s0,8(sp)
    1118:	00c12083          	lw	ra,12(sp)
    111c:	00012903          	lw	s2,0(sp)
    1120:	0ff4f593          	andi	a1,s1,255
    1124:	00412483          	lw	s1,4(sp)
    1128:	00100613          	li	a2,1
    112c:	01010113          	addi	sp,sp,16
    1130:	c8dff06f          	j	dbc <i2c_write>

00001134 <VL53L1X_readReg>:
    1134:	ff010113          	addi	sp,sp,-16
    1138:	00812423          	sw	s0,8(sp)
    113c:	00008437          	lui	s0,0x8
    1140:	00912223          	sw	s1,4(sp)
    1144:	00000613          	li	a2,0
    1148:	00050493          	mv	s1,a0
    114c:	02900593          	li	a1,41
    1150:	04040513          	addi	a0,s0,64 # 8040 <fast_osc_frequency+0x4012>
    1154:	00112623          	sw	ra,12(sp)
    1158:	bf1ff0ef          	jal	ra,d48 <i2c_start_transmit>
    115c:	0084d593          	srli	a1,s1,0x8
    1160:	00000613          	li	a2,0
    1164:	04040513          	addi	a0,s0,64
    1168:	c55ff0ef          	jal	ra,dbc <i2c_write>
    116c:	0ff4f593          	andi	a1,s1,255
    1170:	00100613          	li	a2,1
    1174:	04040513          	addi	a0,s0,64
    1178:	c45ff0ef          	jal	ra,dbc <i2c_write>
    117c:	04040513          	addi	a0,s0,64
    1180:	00100613          	li	a2,1
    1184:	02900593          	li	a1,41
    1188:	bc1ff0ef          	jal	ra,d48 <i2c_start_transmit>
    118c:	04040513          	addi	a0,s0,64
    1190:	00100593          	li	a1,1
    1194:	cbdff0ef          	jal	ra,e50 <i2c_read>
    1198:	00c12083          	lw	ra,12(sp)
    119c:	00812403          	lw	s0,8(sp)
    11a0:	00412483          	lw	s1,4(sp)
    11a4:	0ff57513          	andi	a0,a0,255
    11a8:	01010113          	addi	sp,sp,16
    11ac:	00008067          	ret

000011b0 <VL53L1X_dataReady>:
    11b0:	ff010113          	addi	sp,sp,-16
    11b4:	03100513          	li	a0,49
    11b8:	00112623          	sw	ra,12(sp)
    11bc:	f79ff0ef          	jal	ra,1134 <VL53L1X_readReg>
    11c0:	00c12083          	lw	ra,12(sp)
    11c4:	fff54513          	not	a0,a0
    11c8:	00157513          	andi	a0,a0,1
    11cc:	01010113          	addi	sp,sp,16
    11d0:	00008067          	ret

000011d4 <VL53L1X_setMeasurementTimingBudget.part.0>:
    11d4:	fe010113          	addi	sp,sp,-32
    11d8:	00812c23          	sw	s0,24(sp)
    11dc:	fffff437          	lui	s0,0xfffff
    11e0:	e5040413          	addi	s0,s0,-432 # ffffee50 <fast_osc_frequency+0xffffae22>
    11e4:	0010d7b7          	lui	a5,0x10d
    11e8:	00850433          	add	s0,a0,s0
    11ec:	00112e23          	sw	ra,28(sp)
    11f0:	00912a23          	sw	s1,20(sp)
    11f4:	01212823          	sw	s2,16(sp)
    11f8:	01312623          	sw	s3,12(sp)
    11fc:	01412423          	sw	s4,8(sp)
    1200:	8e078793          	addi	a5,a5,-1824 # 10c8e0 <fast_osc_frequency+0x1088b2>
    1204:	00000513          	li	a0,0
    1208:	0287f263          	bgeu	a5,s0,122c <VL53L1X_setMeasurementTimingBudget.part.0+0x58>
    120c:	01c12083          	lw	ra,28(sp)
    1210:	01812403          	lw	s0,24(sp)
    1214:	01412483          	lw	s1,20(sp)
    1218:	01012903          	lw	s2,16(sp)
    121c:	00c12983          	lw	s3,12(sp)
    1220:	00812a03          	lw	s4,8(sp)
    1224:	02010113          	addi	sp,sp,32
    1228:	00008067          	ret
    122c:	06000513          	li	a0,96
    1230:	f05ff0ef          	jal	ra,1134 <VL53L1X_readReg>
    1234:	000044b7          	lui	s1,0x4
    1238:	02e4d583          	lhu	a1,46(s1) # 402e <fast_osc_frequency>
    123c:	00050913          	mv	s2,a0
    1240:	40000537          	lui	a0,0x40000
    1244:	005020ef          	jal	ra,3a48 <__udivsi3>
    1248:	00351593          	slli	a1,a0,0x3
    124c:	00a585b3          	add	a1,a1,a0
    1250:	00190913          	addi	s2,s2,1
    1254:	00191513          	slli	a0,s2,0x1
    1258:	00859593          	slli	a1,a1,0x8
    125c:	0065d593          	srli	a1,a1,0x6
    1260:	0fe57513          	andi	a0,a0,254
    1264:	728020ef          	jal	ra,398c <__mulsi3>
    1268:	00008a37          	lui	s4,0x8
    126c:	00050993          	mv	s3,a0
    1270:	00000613          	li	a2,0
    1274:	02900593          	li	a1,41
    1278:	040a0513          	addi	a0,s4,64 # 8040 <fast_osc_frequency+0x4012>
    127c:	acdff0ef          	jal	ra,d48 <i2c_start_transmit>
    1280:	00000613          	li	a2,0
    1284:	00000593          	li	a1,0
    1288:	040a0513          	addi	a0,s4,64
    128c:	b31ff0ef          	jal	ra,dbc <i2c_write>
    1290:	00000613          	li	a2,0
    1294:	04b00593          	li	a1,75
    1298:	040a0513          	addi	a0,s4,64
    129c:	b21ff0ef          	jal	ra,dbc <i2c_write>
    12a0:	0069d913          	srli	s2,s3,0x6
    12a4:	003e8537          	lui	a0,0x3e8
    12a8:	0079d993          	srli	s3,s3,0x7
    12ac:	00090593          	mv	a1,s2
    12b0:	00a98533          	add	a0,s3,a0
    12b4:	794020ef          	jal	ra,3a48 <__udivsi3>
    12b8:	0ff00793          	li	a5,255
    12bc:	00145413          	srli	s0,s0,0x1
    12c0:	00a7f463          	bgeu	a5,a0,12c8 <VL53L1X_setMeasurementTimingBudget.part.0+0xf4>
    12c4:	0ff00513          	li	a0,255
    12c8:	0ff57593          	andi	a1,a0,255
    12cc:	00008537          	lui	a0,0x8
    12d0:	00100613          	li	a2,1
    12d4:	04050513          	addi	a0,a0,64 # 8040 <fast_osc_frequency+0x4012>
    12d8:	ae5ff0ef          	jal	ra,dbc <i2c_write>
    12dc:	00001537          	lui	a0,0x1
    12e0:	00a98533          	add	a0,s3,a0
    12e4:	00000593          	li	a1,0
    12e8:	05256663          	bltu	a0,s2,1334 <VL53L1X_setMeasurementTimingBudget.part.0+0x160>
    12ec:	00090593          	mv	a1,s2
    12f0:	758020ef          	jal	ra,3a48 <__udivsi3>
    12f4:	fff50513          	addi	a0,a0,-1 # fff <VL53L1X_writeReg+0x6f>
    12f8:	f0057793          	andi	a5,a0,-256
    12fc:	1c078263          	beqz	a5,14c0 <VL53L1X_setMeasurementTimingBudget.part.0+0x2ec>
    1300:	00000793          	li	a5,0
    1304:	00155513          	srli	a0,a0,0x1
    1308:	00178793          	addi	a5,a5,1
    130c:	01079793          	slli	a5,a5,0x10
    1310:	f0057713          	andi	a4,a0,-256
    1314:	0107d793          	srli	a5,a5,0x10
    1318:	fe0716e3          	bnez	a4,1304 <VL53L1X_setMeasurementTimingBudget.part.0+0x130>
    131c:	00879593          	slli	a1,a5,0x8
    1320:	01059593          	slli	a1,a1,0x10
    1324:	0105d593          	srli	a1,a1,0x10
    1328:	00a5e5b3          	or	a1,a1,a0
    132c:	01059593          	slli	a1,a1,0x10
    1330:	0105d593          	srli	a1,a1,0x10
    1334:	05a00513          	li	a0,90
    1338:	ccdff0ef          	jal	ra,1004 <VL53L1X_writeReg16Bit>
    133c:	00c41413          	slli	s0,s0,0xc
    1340:	00898533          	add	a0,s3,s0
    1344:	00000593          	li	a1,0
    1348:	05256663          	bltu	a0,s2,1394 <VL53L1X_setMeasurementTimingBudget.part.0+0x1c0>
    134c:	00090593          	mv	a1,s2
    1350:	6f8020ef          	jal	ra,3a48 <__udivsi3>
    1354:	fff50513          	addi	a0,a0,-1
    1358:	f0057793          	andi	a5,a0,-256
    135c:	16078663          	beqz	a5,14c8 <VL53L1X_setMeasurementTimingBudget.part.0+0x2f4>
    1360:	00000793          	li	a5,0
    1364:	00155513          	srli	a0,a0,0x1
    1368:	00178793          	addi	a5,a5,1
    136c:	01079793          	slli	a5,a5,0x10
    1370:	f0057713          	andi	a4,a0,-256
    1374:	0107d793          	srli	a5,a5,0x10
    1378:	fe0716e3          	bnez	a4,1364 <VL53L1X_setMeasurementTimingBudget.part.0+0x190>
    137c:	00879593          	slli	a1,a5,0x8
    1380:	01059593          	slli	a1,a1,0x10
    1384:	0105d593          	srli	a1,a1,0x10
    1388:	00a5e5b3          	or	a1,a1,a0
    138c:	01059593          	slli	a1,a1,0x10
    1390:	0105d593          	srli	a1,a1,0x10
    1394:	05e00513          	li	a0,94
    1398:	c6dff0ef          	jal	ra,1004 <VL53L1X_writeReg16Bit>
    139c:	06300513          	li	a0,99
    13a0:	d95ff0ef          	jal	ra,1134 <VL53L1X_readReg>
    13a4:	02e4d583          	lhu	a1,46(s1)
    13a8:	00050793          	mv	a5,a0
    13ac:	40000537          	lui	a0,0x40000
    13b0:	00078493          	mv	s1,a5
    13b4:	694020ef          	jal	ra,3a48 <__udivsi3>
    13b8:	00351593          	slli	a1,a0,0x3
    13bc:	00a585b3          	add	a1,a1,a0
    13c0:	00148493          	addi	s1,s1,1
    13c4:	00149513          	slli	a0,s1,0x1
    13c8:	00859593          	slli	a1,a1,0x8
    13cc:	0065d593          	srli	a1,a1,0x6
    13d0:	0fe57513          	andi	a0,a0,254
    13d4:	5b8020ef          	jal	ra,398c <__mulsi3>
    13d8:	00755913          	srli	s2,a0,0x7
    13dc:	00655493          	srli	s1,a0,0x6
    13e0:	00001537          	lui	a0,0x1
    13e4:	00a90533          	add	a0,s2,a0
    13e8:	00000593          	li	a1,0
    13ec:	04956663          	bltu	a0,s1,1438 <VL53L1X_setMeasurementTimingBudget.part.0+0x264>
    13f0:	00048593          	mv	a1,s1
    13f4:	654020ef          	jal	ra,3a48 <__udivsi3>
    13f8:	fff50513          	addi	a0,a0,-1 # fff <VL53L1X_writeReg+0x6f>
    13fc:	f0057793          	andi	a5,a0,-256
    1400:	0c078863          	beqz	a5,14d0 <VL53L1X_setMeasurementTimingBudget.part.0+0x2fc>
    1404:	00000793          	li	a5,0
    1408:	00155513          	srli	a0,a0,0x1
    140c:	00178793          	addi	a5,a5,1
    1410:	01079793          	slli	a5,a5,0x10
    1414:	f0057713          	andi	a4,a0,-256
    1418:	0107d793          	srli	a5,a5,0x10
    141c:	fe0716e3          	bnez	a4,1408 <VL53L1X_setMeasurementTimingBudget.part.0+0x234>
    1420:	00879593          	slli	a1,a5,0x8
    1424:	01059593          	slli	a1,a1,0x10
    1428:	0105d593          	srli	a1,a1,0x10
    142c:	00a5e5b3          	or	a1,a1,a0
    1430:	01059593          	slli	a1,a1,0x10
    1434:	0105d593          	srli	a1,a1,0x10
    1438:	05c00513          	li	a0,92
    143c:	bc9ff0ef          	jal	ra,1004 <VL53L1X_writeReg16Bit>
    1440:	01240533          	add	a0,s0,s2
    1444:	00000593          	li	a1,0
    1448:	04956663          	bltu	a0,s1,1494 <VL53L1X_setMeasurementTimingBudget.part.0+0x2c0>
    144c:	00048593          	mv	a1,s1
    1450:	5f8020ef          	jal	ra,3a48 <__udivsi3>
    1454:	fff50513          	addi	a0,a0,-1
    1458:	f0057793          	andi	a5,a0,-256
    145c:	06078e63          	beqz	a5,14d8 <VL53L1X_setMeasurementTimingBudget.part.0+0x304>
    1460:	00000793          	li	a5,0
    1464:	00155513          	srli	a0,a0,0x1
    1468:	00178793          	addi	a5,a5,1
    146c:	01079793          	slli	a5,a5,0x10
    1470:	f0057713          	andi	a4,a0,-256
    1474:	0107d793          	srli	a5,a5,0x10
    1478:	fe0716e3          	bnez	a4,1464 <VL53L1X_setMeasurementTimingBudget.part.0+0x290>
    147c:	00879593          	slli	a1,a5,0x8
    1480:	01059593          	slli	a1,a1,0x10
    1484:	0105d593          	srli	a1,a1,0x10
    1488:	00a5e5b3          	or	a1,a1,a0
    148c:	01059593          	slli	a1,a1,0x10
    1490:	0105d593          	srli	a1,a1,0x10
    1494:	06100513          	li	a0,97
    1498:	b6dff0ef          	jal	ra,1004 <VL53L1X_writeReg16Bit>
    149c:	01c12083          	lw	ra,28(sp)
    14a0:	01812403          	lw	s0,24(sp)
    14a4:	01412483          	lw	s1,20(sp)
    14a8:	01012903          	lw	s2,16(sp)
    14ac:	00c12983          	lw	s3,12(sp)
    14b0:	00812a03          	lw	s4,8(sp)
    14b4:	00100513          	li	a0,1
    14b8:	02010113          	addi	sp,sp,32
    14bc:	00008067          	ret
    14c0:	00000593          	li	a1,0
    14c4:	e65ff06f          	j	1328 <VL53L1X_setMeasurementTimingBudget.part.0+0x154>
    14c8:	00000593          	li	a1,0
    14cc:	ebdff06f          	j	1388 <VL53L1X_setMeasurementTimingBudget.part.0+0x1b4>
    14d0:	00000593          	li	a1,0
    14d4:	f59ff06f          	j	142c <VL53L1X_setMeasurementTimingBudget.part.0+0x258>
    14d8:	00000593          	li	a1,0
    14dc:	fadff06f          	j	1488 <VL53L1X_setMeasurementTimingBudget.part.0+0x2b4>

000014e0 <VL53L1X_readReg16Bit>:
    14e0:	ff010113          	addi	sp,sp,-16
    14e4:	00912223          	sw	s1,4(sp)
    14e8:	000084b7          	lui	s1,0x8
    14ec:	00812423          	sw	s0,8(sp)
    14f0:	00000613          	li	a2,0
    14f4:	00050413          	mv	s0,a0
    14f8:	02900593          	li	a1,41
    14fc:	04048513          	addi	a0,s1,64 # 8040 <fast_osc_frequency+0x4012>
    1500:	00112623          	sw	ra,12(sp)
    1504:	845ff0ef          	jal	ra,d48 <i2c_start_transmit>
    1508:	00845593          	srli	a1,s0,0x8
    150c:	00000613          	li	a2,0
    1510:	04048513          	addi	a0,s1,64
    1514:	8a9ff0ef          	jal	ra,dbc <i2c_write>
    1518:	0ff47593          	andi	a1,s0,255
    151c:	00100613          	li	a2,1
    1520:	04048513          	addi	a0,s1,64
    1524:	899ff0ef          	jal	ra,dbc <i2c_write>
    1528:	00100613          	li	a2,1
    152c:	04048513          	addi	a0,s1,64
    1530:	02900593          	li	a1,41
    1534:	815ff0ef          	jal	ra,d48 <i2c_start_transmit>
    1538:	00000593          	li	a1,0
    153c:	04048513          	addi	a0,s1,64
    1540:	911ff0ef          	jal	ra,e50 <i2c_read>
    1544:	00851413          	slli	s0,a0,0x8
    1548:	00100593          	li	a1,1
    154c:	04048513          	addi	a0,s1,64
    1550:	01041413          	slli	s0,s0,0x10
    1554:	8fdff0ef          	jal	ra,e50 <i2c_read>
    1558:	01045413          	srli	s0,s0,0x10
    155c:	00c12083          	lw	ra,12(sp)
    1560:	00a46533          	or	a0,s0,a0
    1564:	00812403          	lw	s0,8(sp)
    1568:	01051513          	slli	a0,a0,0x10
    156c:	00412483          	lw	s1,4(sp)
    1570:	01055513          	srli	a0,a0,0x10
    1574:	01010113          	addi	sp,sp,16
    1578:	00008067          	ret

0000157c <VL53L1X_readReg32Bit>:
    157c:	ff010113          	addi	sp,sp,-16
    1580:	00812423          	sw	s0,8(sp)
    1584:	00008437          	lui	s0,0x8
    1588:	00912223          	sw	s1,4(sp)
    158c:	00000613          	li	a2,0
    1590:	00050493          	mv	s1,a0
    1594:	02900593          	li	a1,41
    1598:	04040513          	addi	a0,s0,64 # 8040 <fast_osc_frequency+0x4012>
    159c:	00112623          	sw	ra,12(sp)
    15a0:	01212023          	sw	s2,0(sp)
    15a4:	fa4ff0ef          	jal	ra,d48 <i2c_start_transmit>
    15a8:	0084d593          	srli	a1,s1,0x8
    15ac:	00000613          	li	a2,0
    15b0:	04040513          	addi	a0,s0,64
    15b4:	809ff0ef          	jal	ra,dbc <i2c_write>
    15b8:	0ff4f593          	andi	a1,s1,255
    15bc:	00100613          	li	a2,1
    15c0:	04040513          	addi	a0,s0,64
    15c4:	ff8ff0ef          	jal	ra,dbc <i2c_write>
    15c8:	00100613          	li	a2,1
    15cc:	04040513          	addi	a0,s0,64
    15d0:	02900593          	li	a1,41
    15d4:	f74ff0ef          	jal	ra,d48 <i2c_start_transmit>
    15d8:	00000593          	li	a1,0
    15dc:	04040513          	addi	a0,s0,64
    15e0:	871ff0ef          	jal	ra,e50 <i2c_read>
    15e4:	00050913          	mv	s2,a0
    15e8:	00000593          	li	a1,0
    15ec:	04040513          	addi	a0,s0,64
    15f0:	861ff0ef          	jal	ra,e50 <i2c_read>
    15f4:	01051493          	slli	s1,a0,0x10
    15f8:	00000593          	li	a1,0
    15fc:	04040513          	addi	a0,s0,64
    1600:	851ff0ef          	jal	ra,e50 <i2c_read>
    1604:	01891913          	slli	s2,s2,0x18
    1608:	0124e4b3          	or	s1,s1,s2
    160c:	00100593          	li	a1,1
    1610:	00050913          	mv	s2,a0
    1614:	04040513          	addi	a0,s0,64
    1618:	839ff0ef          	jal	ra,e50 <i2c_read>
    161c:	00c12083          	lw	ra,12(sp)
    1620:	00812403          	lw	s0,8(sp)
    1624:	00891913          	slli	s2,s2,0x8
    1628:	01091913          	slli	s2,s2,0x10
    162c:	00a4e533          	or	a0,s1,a0
    1630:	01095913          	srli	s2,s2,0x10
    1634:	00412483          	lw	s1,4(sp)
    1638:	00a96533          	or	a0,s2,a0
    163c:	00012903          	lw	s2,0(sp)
    1640:	01010113          	addi	sp,sp,16
    1644:	00008067          	ret

00001648 <VL53L1X_setDistanceMode>:
    1648:	ff010113          	addi	sp,sp,-16
    164c:	00112623          	sw	ra,12(sp)
    1650:	00812423          	sw	s0,8(sp)
    1654:	00200793          	li	a5,2
    1658:	02f50463          	beq	a0,a5,1680 <VL53L1X_setDistanceMode+0x38>
    165c:	00300793          	li	a5,3
    1660:	3cf50863          	beq	a0,a5,1a30 <VL53L1X_setDistanceMode+0x3e8>
    1664:	00100793          	li	a5,1
    1668:	1ef50863          	beq	a0,a5,1858 <VL53L1X_setDistanceMode+0x210>
    166c:	00c12083          	lw	ra,12(sp)
    1670:	00812403          	lw	s0,8(sp)
    1674:	00000513          	li	a0,0
    1678:	01010113          	addi	sp,sp,16
    167c:	00008067          	ret
    1680:	00008437          	lui	s0,0x8
    1684:	04040513          	addi	a0,s0,64 # 8040 <fast_osc_frequency+0x4012>
    1688:	00000613          	li	a2,0
    168c:	02900593          	li	a1,41
    1690:	eb8ff0ef          	jal	ra,d48 <i2c_start_transmit>
    1694:	00000613          	li	a2,0
    1698:	00000593          	li	a1,0
    169c:	04040513          	addi	a0,s0,64
    16a0:	f1cff0ef          	jal	ra,dbc <i2c_write>
    16a4:	00000613          	li	a2,0
    16a8:	06000593          	li	a1,96
    16ac:	04040513          	addi	a0,s0,64
    16b0:	f0cff0ef          	jal	ra,dbc <i2c_write>
    16b4:	00100613          	li	a2,1
    16b8:	00b00593          	li	a1,11
    16bc:	04040513          	addi	a0,s0,64
    16c0:	efcff0ef          	jal	ra,dbc <i2c_write>
    16c4:	04040513          	addi	a0,s0,64
    16c8:	00000613          	li	a2,0
    16cc:	02900593          	li	a1,41
    16d0:	e78ff0ef          	jal	ra,d48 <i2c_start_transmit>
    16d4:	00000613          	li	a2,0
    16d8:	00000593          	li	a1,0
    16dc:	04040513          	addi	a0,s0,64
    16e0:	edcff0ef          	jal	ra,dbc <i2c_write>
    16e4:	00000613          	li	a2,0
    16e8:	06300593          	li	a1,99
    16ec:	04040513          	addi	a0,s0,64
    16f0:	eccff0ef          	jal	ra,dbc <i2c_write>
    16f4:	00100613          	li	a2,1
    16f8:	00900593          	li	a1,9
    16fc:	04040513          	addi	a0,s0,64
    1700:	ebcff0ef          	jal	ra,dbc <i2c_write>
    1704:	04040513          	addi	a0,s0,64
    1708:	00000613          	li	a2,0
    170c:	02900593          	li	a1,41
    1710:	e38ff0ef          	jal	ra,d48 <i2c_start_transmit>
    1714:	00000613          	li	a2,0
    1718:	00000593          	li	a1,0
    171c:	04040513          	addi	a0,s0,64
    1720:	e9cff0ef          	jal	ra,dbc <i2c_write>
    1724:	00000613          	li	a2,0
    1728:	06900593          	li	a1,105
    172c:	04040513          	addi	a0,s0,64
    1730:	e8cff0ef          	jal	ra,dbc <i2c_write>
    1734:	00100613          	li	a2,1
    1738:	07800593          	li	a1,120
    173c:	04040513          	addi	a0,s0,64
    1740:	e7cff0ef          	jal	ra,dbc <i2c_write>
    1744:	04040513          	addi	a0,s0,64
    1748:	00000613          	li	a2,0
    174c:	02900593          	li	a1,41
    1750:	df8ff0ef          	jal	ra,d48 <i2c_start_transmit>
    1754:	00000613          	li	a2,0
    1758:	00000593          	li	a1,0
    175c:	04040513          	addi	a0,s0,64
    1760:	e5cff0ef          	jal	ra,dbc <i2c_write>
    1764:	00000613          	li	a2,0
    1768:	07800593          	li	a1,120
    176c:	04040513          	addi	a0,s0,64
    1770:	e4cff0ef          	jal	ra,dbc <i2c_write>
    1774:	00100613          	li	a2,1
    1778:	00b00593          	li	a1,11
    177c:	04040513          	addi	a0,s0,64
    1780:	e3cff0ef          	jal	ra,dbc <i2c_write>
    1784:	04040513          	addi	a0,s0,64
    1788:	00000613          	li	a2,0
    178c:	02900593          	li	a1,41
    1790:	db8ff0ef          	jal	ra,d48 <i2c_start_transmit>
    1794:	00000613          	li	a2,0
    1798:	00000593          	li	a1,0
    179c:	04040513          	addi	a0,s0,64
    17a0:	e1cff0ef          	jal	ra,dbc <i2c_write>
    17a4:	00000613          	li	a2,0
    17a8:	07900593          	li	a1,121
    17ac:	04040513          	addi	a0,s0,64
    17b0:	e0cff0ef          	jal	ra,dbc <i2c_write>
    17b4:	00100613          	li	a2,1
    17b8:	00900593          	li	a1,9
    17bc:	04040513          	addi	a0,s0,64
    17c0:	dfcff0ef          	jal	ra,dbc <i2c_write>
    17c4:	04040513          	addi	a0,s0,64
    17c8:	00000613          	li	a2,0
    17cc:	02900593          	li	a1,41
    17d0:	d78ff0ef          	jal	ra,d48 <i2c_start_transmit>
    17d4:	00000613          	li	a2,0
    17d8:	00000593          	li	a1,0
    17dc:	04040513          	addi	a0,s0,64
    17e0:	ddcff0ef          	jal	ra,dbc <i2c_write>
    17e4:	00000613          	li	a2,0
    17e8:	07a00593          	li	a1,122
    17ec:	04040513          	addi	a0,s0,64
    17f0:	dccff0ef          	jal	ra,dbc <i2c_write>
    17f4:	00100613          	li	a2,1
    17f8:	00a00593          	li	a1,10
    17fc:	04040513          	addi	a0,s0,64
    1800:	dbcff0ef          	jal	ra,dbc <i2c_write>
    1804:	04040513          	addi	a0,s0,64
    1808:	00000613          	li	a2,0
    180c:	02900593          	li	a1,41
    1810:	d38ff0ef          	jal	ra,d48 <i2c_start_transmit>
    1814:	00000613          	li	a2,0
    1818:	00000593          	li	a1,0
    181c:	04040513          	addi	a0,s0,64
    1820:	d9cff0ef          	jal	ra,dbc <i2c_write>
    1824:	00000613          	li	a2,0
    1828:	07b00593          	li	a1,123
    182c:	04040513          	addi	a0,s0,64
    1830:	d8cff0ef          	jal	ra,dbc <i2c_write>
    1834:	04040513          	addi	a0,s0,64
    1838:	00100613          	li	a2,1
    183c:	00a00593          	li	a1,10
    1840:	d7cff0ef          	jal	ra,dbc <i2c_write>
    1844:	00c12083          	lw	ra,12(sp)
    1848:	00812403          	lw	s0,8(sp)
    184c:	00000513          	li	a0,0
    1850:	01010113          	addi	sp,sp,16
    1854:	00008067          	ret
    1858:	00008437          	lui	s0,0x8
    185c:	04040513          	addi	a0,s0,64 # 8040 <fast_osc_frequency+0x4012>
    1860:	00000613          	li	a2,0
    1864:	02900593          	li	a1,41
    1868:	ce0ff0ef          	jal	ra,d48 <i2c_start_transmit>
    186c:	00000613          	li	a2,0
    1870:	00000593          	li	a1,0
    1874:	04040513          	addi	a0,s0,64
    1878:	d44ff0ef          	jal	ra,dbc <i2c_write>
    187c:	00000613          	li	a2,0
    1880:	06000593          	li	a1,96
    1884:	04040513          	addi	a0,s0,64
    1888:	d34ff0ef          	jal	ra,dbc <i2c_write>
    188c:	00100613          	li	a2,1
    1890:	00700593          	li	a1,7
    1894:	04040513          	addi	a0,s0,64
    1898:	d24ff0ef          	jal	ra,dbc <i2c_write>
    189c:	04040513          	addi	a0,s0,64
    18a0:	00000613          	li	a2,0
    18a4:	02900593          	li	a1,41
    18a8:	ca0ff0ef          	jal	ra,d48 <i2c_start_transmit>
    18ac:	00000613          	li	a2,0
    18b0:	00000593          	li	a1,0
    18b4:	04040513          	addi	a0,s0,64
    18b8:	d04ff0ef          	jal	ra,dbc <i2c_write>
    18bc:	00000613          	li	a2,0
    18c0:	06300593          	li	a1,99
    18c4:	04040513          	addi	a0,s0,64
    18c8:	cf4ff0ef          	jal	ra,dbc <i2c_write>
    18cc:	00100613          	li	a2,1
    18d0:	00500593          	li	a1,5
    18d4:	04040513          	addi	a0,s0,64
    18d8:	ce4ff0ef          	jal	ra,dbc <i2c_write>
    18dc:	04040513          	addi	a0,s0,64
    18e0:	00000613          	li	a2,0
    18e4:	02900593          	li	a1,41
    18e8:	c60ff0ef          	jal	ra,d48 <i2c_start_transmit>
    18ec:	00000613          	li	a2,0
    18f0:	00000593          	li	a1,0
    18f4:	04040513          	addi	a0,s0,64
    18f8:	cc4ff0ef          	jal	ra,dbc <i2c_write>
    18fc:	00000613          	li	a2,0
    1900:	06900593          	li	a1,105
    1904:	04040513          	addi	a0,s0,64
    1908:	cb4ff0ef          	jal	ra,dbc <i2c_write>
    190c:	00100613          	li	a2,1
    1910:	03800593          	li	a1,56
    1914:	04040513          	addi	a0,s0,64
    1918:	ca4ff0ef          	jal	ra,dbc <i2c_write>
    191c:	04040513          	addi	a0,s0,64
    1920:	00000613          	li	a2,0
    1924:	02900593          	li	a1,41
    1928:	c20ff0ef          	jal	ra,d48 <i2c_start_transmit>
    192c:	00000613          	li	a2,0
    1930:	00000593          	li	a1,0
    1934:	04040513          	addi	a0,s0,64
    1938:	c84ff0ef          	jal	ra,dbc <i2c_write>
    193c:	00000613          	li	a2,0
    1940:	07800593          	li	a1,120
    1944:	04040513          	addi	a0,s0,64
    1948:	c74ff0ef          	jal	ra,dbc <i2c_write>
    194c:	00100613          	li	a2,1
    1950:	00700593          	li	a1,7
    1954:	04040513          	addi	a0,s0,64
    1958:	c64ff0ef          	jal	ra,dbc <i2c_write>
    195c:	04040513          	addi	a0,s0,64
    1960:	00000613          	li	a2,0
    1964:	02900593          	li	a1,41
    1968:	be0ff0ef          	jal	ra,d48 <i2c_start_transmit>
    196c:	00000613          	li	a2,0
    1970:	00000593          	li	a1,0
    1974:	04040513          	addi	a0,s0,64
    1978:	c44ff0ef          	jal	ra,dbc <i2c_write>
    197c:	00000613          	li	a2,0
    1980:	07900593          	li	a1,121
    1984:	04040513          	addi	a0,s0,64
    1988:	c34ff0ef          	jal	ra,dbc <i2c_write>
    198c:	00100613          	li	a2,1
    1990:	00500593          	li	a1,5
    1994:	04040513          	addi	a0,s0,64
    1998:	c24ff0ef          	jal	ra,dbc <i2c_write>
    199c:	04040513          	addi	a0,s0,64
    19a0:	00000613          	li	a2,0
    19a4:	02900593          	li	a1,41
    19a8:	ba0ff0ef          	jal	ra,d48 <i2c_start_transmit>
    19ac:	00000613          	li	a2,0
    19b0:	00000593          	li	a1,0
    19b4:	04040513          	addi	a0,s0,64
    19b8:	c04ff0ef          	jal	ra,dbc <i2c_write>
    19bc:	00000613          	li	a2,0
    19c0:	07a00593          	li	a1,122
    19c4:	04040513          	addi	a0,s0,64
    19c8:	bf4ff0ef          	jal	ra,dbc <i2c_write>
    19cc:	00100613          	li	a2,1
    19d0:	00600593          	li	a1,6
    19d4:	04040513          	addi	a0,s0,64
    19d8:	be4ff0ef          	jal	ra,dbc <i2c_write>
    19dc:	04040513          	addi	a0,s0,64
    19e0:	00000613          	li	a2,0
    19e4:	02900593          	li	a1,41
    19e8:	b60ff0ef          	jal	ra,d48 <i2c_start_transmit>
    19ec:	00000613          	li	a2,0
    19f0:	00000593          	li	a1,0
    19f4:	04040513          	addi	a0,s0,64
    19f8:	bc4ff0ef          	jal	ra,dbc <i2c_write>
    19fc:	00000613          	li	a2,0
    1a00:	07b00593          	li	a1,123
    1a04:	04040513          	addi	a0,s0,64
    1a08:	bb4ff0ef          	jal	ra,dbc <i2c_write>
    1a0c:	04040513          	addi	a0,s0,64
    1a10:	00100613          	li	a2,1
    1a14:	00600593          	li	a1,6
    1a18:	ba4ff0ef          	jal	ra,dbc <i2c_write>
    1a1c:	00c12083          	lw	ra,12(sp)
    1a20:	00812403          	lw	s0,8(sp)
    1a24:	00000513          	li	a0,0
    1a28:	01010113          	addi	sp,sp,16
    1a2c:	00008067          	ret
    1a30:	00008437          	lui	s0,0x8
    1a34:	04040513          	addi	a0,s0,64 # 8040 <fast_osc_frequency+0x4012>
    1a38:	00000613          	li	a2,0
    1a3c:	02900593          	li	a1,41
    1a40:	b08ff0ef          	jal	ra,d48 <i2c_start_transmit>
    1a44:	00000613          	li	a2,0
    1a48:	00000593          	li	a1,0
    1a4c:	04040513          	addi	a0,s0,64
    1a50:	b6cff0ef          	jal	ra,dbc <i2c_write>
    1a54:	00000613          	li	a2,0
    1a58:	06000593          	li	a1,96
    1a5c:	04040513          	addi	a0,s0,64
    1a60:	b5cff0ef          	jal	ra,dbc <i2c_write>
    1a64:	00100613          	li	a2,1
    1a68:	00f00593          	li	a1,15
    1a6c:	04040513          	addi	a0,s0,64
    1a70:	b4cff0ef          	jal	ra,dbc <i2c_write>
    1a74:	04040513          	addi	a0,s0,64
    1a78:	00000613          	li	a2,0
    1a7c:	02900593          	li	a1,41
    1a80:	ac8ff0ef          	jal	ra,d48 <i2c_start_transmit>
    1a84:	00000613          	li	a2,0
    1a88:	00000593          	li	a1,0
    1a8c:	04040513          	addi	a0,s0,64
    1a90:	b2cff0ef          	jal	ra,dbc <i2c_write>
    1a94:	00000613          	li	a2,0
    1a98:	06300593          	li	a1,99
    1a9c:	04040513          	addi	a0,s0,64
    1aa0:	b1cff0ef          	jal	ra,dbc <i2c_write>
    1aa4:	00100613          	li	a2,1
    1aa8:	00d00593          	li	a1,13
    1aac:	04040513          	addi	a0,s0,64
    1ab0:	b0cff0ef          	jal	ra,dbc <i2c_write>
    1ab4:	04040513          	addi	a0,s0,64
    1ab8:	00000613          	li	a2,0
    1abc:	02900593          	li	a1,41
    1ac0:	a88ff0ef          	jal	ra,d48 <i2c_start_transmit>
    1ac4:	00000613          	li	a2,0
    1ac8:	00000593          	li	a1,0
    1acc:	04040513          	addi	a0,s0,64
    1ad0:	aecff0ef          	jal	ra,dbc <i2c_write>
    1ad4:	00000613          	li	a2,0
    1ad8:	06900593          	li	a1,105
    1adc:	04040513          	addi	a0,s0,64
    1ae0:	adcff0ef          	jal	ra,dbc <i2c_write>
    1ae4:	00100613          	li	a2,1
    1ae8:	0b800593          	li	a1,184
    1aec:	04040513          	addi	a0,s0,64
    1af0:	accff0ef          	jal	ra,dbc <i2c_write>
    1af4:	04040513          	addi	a0,s0,64
    1af8:	00000613          	li	a2,0
    1afc:	02900593          	li	a1,41
    1b00:	a48ff0ef          	jal	ra,d48 <i2c_start_transmit>
    1b04:	00000613          	li	a2,0
    1b08:	00000593          	li	a1,0
    1b0c:	04040513          	addi	a0,s0,64
    1b10:	aacff0ef          	jal	ra,dbc <i2c_write>
    1b14:	00000613          	li	a2,0
    1b18:	07800593          	li	a1,120
    1b1c:	04040513          	addi	a0,s0,64
    1b20:	a9cff0ef          	jal	ra,dbc <i2c_write>
    1b24:	00100613          	li	a2,1
    1b28:	00f00593          	li	a1,15
    1b2c:	04040513          	addi	a0,s0,64
    1b30:	a8cff0ef          	jal	ra,dbc <i2c_write>
    1b34:	04040513          	addi	a0,s0,64
    1b38:	00000613          	li	a2,0
    1b3c:	02900593          	li	a1,41
    1b40:	a08ff0ef          	jal	ra,d48 <i2c_start_transmit>
    1b44:	00000613          	li	a2,0
    1b48:	00000593          	li	a1,0
    1b4c:	04040513          	addi	a0,s0,64
    1b50:	a6cff0ef          	jal	ra,dbc <i2c_write>
    1b54:	00000613          	li	a2,0
    1b58:	07900593          	li	a1,121
    1b5c:	04040513          	addi	a0,s0,64
    1b60:	a5cff0ef          	jal	ra,dbc <i2c_write>
    1b64:	00100613          	li	a2,1
    1b68:	00d00593          	li	a1,13
    1b6c:	04040513          	addi	a0,s0,64
    1b70:	a4cff0ef          	jal	ra,dbc <i2c_write>
    1b74:	04040513          	addi	a0,s0,64
    1b78:	00000613          	li	a2,0
    1b7c:	02900593          	li	a1,41
    1b80:	9c8ff0ef          	jal	ra,d48 <i2c_start_transmit>
    1b84:	00000613          	li	a2,0
    1b88:	00000593          	li	a1,0
    1b8c:	04040513          	addi	a0,s0,64
    1b90:	a2cff0ef          	jal	ra,dbc <i2c_write>
    1b94:	00000613          	li	a2,0
    1b98:	07a00593          	li	a1,122
    1b9c:	04040513          	addi	a0,s0,64
    1ba0:	a1cff0ef          	jal	ra,dbc <i2c_write>
    1ba4:	00100613          	li	a2,1
    1ba8:	00e00593          	li	a1,14
    1bac:	04040513          	addi	a0,s0,64
    1bb0:	a0cff0ef          	jal	ra,dbc <i2c_write>
    1bb4:	04040513          	addi	a0,s0,64
    1bb8:	00000613          	li	a2,0
    1bbc:	02900593          	li	a1,41
    1bc0:	988ff0ef          	jal	ra,d48 <i2c_start_transmit>
    1bc4:	00000613          	li	a2,0
    1bc8:	00000593          	li	a1,0
    1bcc:	04040513          	addi	a0,s0,64
    1bd0:	9ecff0ef          	jal	ra,dbc <i2c_write>
    1bd4:	00000613          	li	a2,0
    1bd8:	07b00593          	li	a1,123
    1bdc:	04040513          	addi	a0,s0,64
    1be0:	9dcff0ef          	jal	ra,dbc <i2c_write>
    1be4:	04040513          	addi	a0,s0,64
    1be8:	00100613          	li	a2,1
    1bec:	00e00593          	li	a1,14
    1bf0:	9ccff0ef          	jal	ra,dbc <i2c_write>
    1bf4:	00c12083          	lw	ra,12(sp)
    1bf8:	00812403          	lw	s0,8(sp)
    1bfc:	00000513          	li	a0,0
    1c00:	01010113          	addi	sp,sp,16
    1c04:	00008067          	ret

00001c08 <VL53L1X_init>:
    1c08:	ff010113          	addi	sp,sp,-16
    1c0c:	00812423          	sw	s0,8(sp)
    1c10:	00008437          	lui	s0,0x8
    1c14:	00000613          	li	a2,0
    1c18:	02900593          	li	a1,41
    1c1c:	04040513          	addi	a0,s0,64 # 8040 <fast_osc_frequency+0x4012>
    1c20:	00112623          	sw	ra,12(sp)
    1c24:	00912223          	sw	s1,4(sp)
    1c28:	920ff0ef          	jal	ra,d48 <i2c_start_transmit>
    1c2c:	00000613          	li	a2,0
    1c30:	00000593          	li	a1,0
    1c34:	04040513          	addi	a0,s0,64
    1c38:	984ff0ef          	jal	ra,dbc <i2c_write>
    1c3c:	00000613          	li	a2,0
    1c40:	00000593          	li	a1,0
    1c44:	04040513          	addi	a0,s0,64
    1c48:	974ff0ef          	jal	ra,dbc <i2c_write>
    1c4c:	00100613          	li	a2,1
    1c50:	00000593          	li	a1,0
    1c54:	04040513          	addi	a0,s0,64
    1c58:	964ff0ef          	jal	ra,dbc <i2c_write>
    1c5c:	06400513          	li	a0,100
    1c60:	00000593          	li	a1,0
    1c64:	f45fe0ef          	jal	ra,ba8 <wait_ms>
    1c68:	00000613          	li	a2,0
    1c6c:	02900593          	li	a1,41
    1c70:	04040513          	addi	a0,s0,64
    1c74:	8d4ff0ef          	jal	ra,d48 <i2c_start_transmit>
    1c78:	00000613          	li	a2,0
    1c7c:	00000593          	li	a1,0
    1c80:	04040513          	addi	a0,s0,64
    1c84:	938ff0ef          	jal	ra,dbc <i2c_write>
    1c88:	00000613          	li	a2,0
    1c8c:	00000593          	li	a1,0
    1c90:	04040513          	addi	a0,s0,64
    1c94:	928ff0ef          	jal	ra,dbc <i2c_write>
    1c98:	00100593          	li	a1,1
    1c9c:	00100613          	li	a2,1
    1ca0:	04040513          	addi	a0,s0,64
    1ca4:	918ff0ef          	jal	ra,dbc <i2c_write>
    1ca8:	3e800513          	li	a0,1000
    1cac:	00000593          	li	a1,0
    1cb0:	ef9fe0ef          	jal	ra,ba8 <wait_ms>
    1cb4:	0e500513          	li	a0,229
    1cb8:	c7cff0ef          	jal	ra,1134 <VL53L1X_readReg>
    1cbc:	00157513          	andi	a0,a0,1
    1cc0:	fe050ae3          	beqz	a0,1cb4 <VL53L1X_init+0xac>
    1cc4:	02e00513          	li	a0,46
    1cc8:	00008437          	lui	s0,0x8
    1ccc:	c68ff0ef          	jal	ra,1134 <VL53L1X_readReg>
    1cd0:	00050493          	mv	s1,a0
    1cd4:	00000613          	li	a2,0
    1cd8:	04040513          	addi	a0,s0,64 # 8040 <fast_osc_frequency+0x4012>
    1cdc:	02900593          	li	a1,41
    1ce0:	868ff0ef          	jal	ra,d48 <i2c_start_transmit>
    1ce4:	00000613          	li	a2,0
    1ce8:	00000593          	li	a1,0
    1cec:	04040513          	addi	a0,s0,64
    1cf0:	8ccff0ef          	jal	ra,dbc <i2c_write>
    1cf4:	00000613          	li	a2,0
    1cf8:	02e00593          	li	a1,46
    1cfc:	04040513          	addi	a0,s0,64
    1d00:	8bcff0ef          	jal	ra,dbc <i2c_write>
    1d04:	0014e593          	ori	a1,s1,1
    1d08:	00100613          	li	a2,1
    1d0c:	0ff5f593          	andi	a1,a1,255
    1d10:	04040513          	addi	a0,s0,64
    1d14:	8a8ff0ef          	jal	ra,dbc <i2c_write>
    1d18:	00600513          	li	a0,6
    1d1c:	fc4ff0ef          	jal	ra,14e0 <VL53L1X_readReg16Bit>
    1d20:	00050713          	mv	a4,a0
    1d24:	000047b7          	lui	a5,0x4
    1d28:	0de00513          	li	a0,222
    1d2c:	02e79723          	sh	a4,46(a5) # 402e <fast_osc_frequency>
    1d30:	fb0ff0ef          	jal	ra,14e0 <VL53L1X_readReg16Bit>
    1d34:	000015b7          	lui	a1,0x1
    1d38:	00050713          	mv	a4,a0
    1d3c:	000047b7          	lui	a5,0x4
    1d40:	a0058593          	addi	a1,a1,-1536 # a00 <xfputs+0x28>
    1d44:	02400513          	li	a0,36
    1d48:	02e79623          	sh	a4,44(a5) # 402c <osc_calibrate_val>
    1d4c:	ab8ff0ef          	jal	ra,1004 <VL53L1X_writeReg16Bit>
    1d50:	04040513          	addi	a0,s0,64
    1d54:	00000613          	li	a2,0
    1d58:	02900593          	li	a1,41
    1d5c:	fedfe0ef          	jal	ra,d48 <i2c_start_transmit>
    1d60:	00000613          	li	a2,0
    1d64:	00000593          	li	a1,0
    1d68:	04040513          	addi	a0,s0,64
    1d6c:	850ff0ef          	jal	ra,dbc <i2c_write>
    1d70:	00000613          	li	a2,0
    1d74:	03100593          	li	a1,49
    1d78:	04040513          	addi	a0,s0,64
    1d7c:	840ff0ef          	jal	ra,dbc <i2c_write>
    1d80:	00100613          	li	a2,1
    1d84:	00200593          	li	a1,2
    1d88:	04040513          	addi	a0,s0,64
    1d8c:	830ff0ef          	jal	ra,dbc <i2c_write>
    1d90:	04040513          	addi	a0,s0,64
    1d94:	00000613          	li	a2,0
    1d98:	02900593          	li	a1,41
    1d9c:	fadfe0ef          	jal	ra,d48 <i2c_start_transmit>
    1da0:	00000613          	li	a2,0
    1da4:	00000593          	li	a1,0
    1da8:	04040513          	addi	a0,s0,64
    1dac:	810ff0ef          	jal	ra,dbc <i2c_write>
    1db0:	00000613          	li	a2,0
    1db4:	03600593          	li	a1,54
    1db8:	04040513          	addi	a0,s0,64
    1dbc:	800ff0ef          	jal	ra,dbc <i2c_write>
    1dc0:	00100613          	li	a2,1
    1dc4:	00800593          	li	a1,8
    1dc8:	04040513          	addi	a0,s0,64
    1dcc:	ff1fe0ef          	jal	ra,dbc <i2c_write>
    1dd0:	04040513          	addi	a0,s0,64
    1dd4:	00000613          	li	a2,0
    1dd8:	02900593          	li	a1,41
    1ddc:	f6dfe0ef          	jal	ra,d48 <i2c_start_transmit>
    1de0:	00000613          	li	a2,0
    1de4:	00000593          	li	a1,0
    1de8:	04040513          	addi	a0,s0,64
    1dec:	fd1fe0ef          	jal	ra,dbc <i2c_write>
    1df0:	00000613          	li	a2,0
    1df4:	03700593          	li	a1,55
    1df8:	04040513          	addi	a0,s0,64
    1dfc:	fc1fe0ef          	jal	ra,dbc <i2c_write>
    1e00:	00100613          	li	a2,1
    1e04:	01000593          	li	a1,16
    1e08:	04040513          	addi	a0,s0,64
    1e0c:	fb1fe0ef          	jal	ra,dbc <i2c_write>
    1e10:	04040513          	addi	a0,s0,64
    1e14:	00000613          	li	a2,0
    1e18:	02900593          	li	a1,41
    1e1c:	f2dfe0ef          	jal	ra,d48 <i2c_start_transmit>
    1e20:	00000613          	li	a2,0
    1e24:	00000593          	li	a1,0
    1e28:	04040513          	addi	a0,s0,64
    1e2c:	f91fe0ef          	jal	ra,dbc <i2c_write>
    1e30:	00000613          	li	a2,0
    1e34:	03900593          	li	a1,57
    1e38:	04040513          	addi	a0,s0,64
    1e3c:	f81fe0ef          	jal	ra,dbc <i2c_write>
    1e40:	00100613          	li	a2,1
    1e44:	00100593          	li	a1,1
    1e48:	04040513          	addi	a0,s0,64
    1e4c:	f71fe0ef          	jal	ra,dbc <i2c_write>
    1e50:	04040513          	addi	a0,s0,64
    1e54:	00000613          	li	a2,0
    1e58:	02900593          	li	a1,41
    1e5c:	eedfe0ef          	jal	ra,d48 <i2c_start_transmit>
    1e60:	00000613          	li	a2,0
    1e64:	00000593          	li	a1,0
    1e68:	04040513          	addi	a0,s0,64
    1e6c:	f51fe0ef          	jal	ra,dbc <i2c_write>
    1e70:	00000613          	li	a2,0
    1e74:	03e00593          	li	a1,62
    1e78:	04040513          	addi	a0,s0,64
    1e7c:	f41fe0ef          	jal	ra,dbc <i2c_write>
    1e80:	00100613          	li	a2,1
    1e84:	0ff00593          	li	a1,255
    1e88:	04040513          	addi	a0,s0,64
    1e8c:	f31fe0ef          	jal	ra,dbc <i2c_write>
    1e90:	04040513          	addi	a0,s0,64
    1e94:	00000613          	li	a2,0
    1e98:	02900593          	li	a1,41
    1e9c:	eadfe0ef          	jal	ra,d48 <i2c_start_transmit>
    1ea0:	00000613          	li	a2,0
    1ea4:	00000593          	li	a1,0
    1ea8:	04040513          	addi	a0,s0,64
    1eac:	f11fe0ef          	jal	ra,dbc <i2c_write>
    1eb0:	00000613          	li	a2,0
    1eb4:	03f00593          	li	a1,63
    1eb8:	04040513          	addi	a0,s0,64
    1ebc:	f01fe0ef          	jal	ra,dbc <i2c_write>
    1ec0:	00100613          	li	a2,1
    1ec4:	00000593          	li	a1,0
    1ec8:	04040513          	addi	a0,s0,64
    1ecc:	ef1fe0ef          	jal	ra,dbc <i2c_write>
    1ed0:	04040513          	addi	a0,s0,64
    1ed4:	00000613          	li	a2,0
    1ed8:	02900593          	li	a1,41
    1edc:	e6dfe0ef          	jal	ra,d48 <i2c_start_transmit>
    1ee0:	00000613          	li	a2,0
    1ee4:	00000593          	li	a1,0
    1ee8:	04040513          	addi	a0,s0,64
    1eec:	ed1fe0ef          	jal	ra,dbc <i2c_write>
    1ef0:	00000613          	li	a2,0
    1ef4:	04000593          	li	a1,64
    1ef8:	04040513          	addi	a0,s0,64
    1efc:	ec1fe0ef          	jal	ra,dbc <i2c_write>
    1f00:	00100613          	li	a2,1
    1f04:	00200593          	li	a1,2
    1f08:	04040513          	addi	a0,s0,64
    1f0c:	eb1fe0ef          	jal	ra,dbc <i2c_write>
    1f10:	00000593          	li	a1,0
    1f14:	05000513          	li	a0,80
    1f18:	8ecff0ef          	jal	ra,1004 <VL53L1X_writeReg16Bit>
    1f1c:	00000593          	li	a1,0
    1f20:	05200513          	li	a0,82
    1f24:	8e0ff0ef          	jal	ra,1004 <VL53L1X_writeReg16Bit>
    1f28:	04040513          	addi	a0,s0,64
    1f2c:	00000613          	li	a2,0
    1f30:	02900593          	li	a1,41
    1f34:	e15fe0ef          	jal	ra,d48 <i2c_start_transmit>
    1f38:	00000613          	li	a2,0
    1f3c:	00000593          	li	a1,0
    1f40:	04040513          	addi	a0,s0,64
    1f44:	e79fe0ef          	jal	ra,dbc <i2c_write>
    1f48:	00000613          	li	a2,0
    1f4c:	05700593          	li	a1,87
    1f50:	04040513          	addi	a0,s0,64
    1f54:	e69fe0ef          	jal	ra,dbc <i2c_write>
    1f58:	00100613          	li	a2,1
    1f5c:	03800593          	li	a1,56
    1f60:	04040513          	addi	a0,s0,64
    1f64:	e59fe0ef          	jal	ra,dbc <i2c_write>
    1f68:	16800593          	li	a1,360
    1f6c:	06400513          	li	a0,100
    1f70:	894ff0ef          	jal	ra,1004 <VL53L1X_writeReg16Bit>
    1f74:	0c000593          	li	a1,192
    1f78:	06600513          	li	a0,102
    1f7c:	888ff0ef          	jal	ra,1004 <VL53L1X_writeReg16Bit>
    1f80:	04040513          	addi	a0,s0,64
    1f84:	00000613          	li	a2,0
    1f88:	02900593          	li	a1,41
    1f8c:	dbdfe0ef          	jal	ra,d48 <i2c_start_transmit>
    1f90:	00000613          	li	a2,0
    1f94:	00000593          	li	a1,0
    1f98:	04040513          	addi	a0,s0,64
    1f9c:	e21fe0ef          	jal	ra,dbc <i2c_write>
    1fa0:	00000613          	li	a2,0
    1fa4:	07100593          	li	a1,113
    1fa8:	04040513          	addi	a0,s0,64
    1fac:	e11fe0ef          	jal	ra,dbc <i2c_write>
    1fb0:	00100613          	li	a2,1
    1fb4:	00100593          	li	a1,1
    1fb8:	04040513          	addi	a0,s0,64
    1fbc:	e01fe0ef          	jal	ra,dbc <i2c_write>
    1fc0:	04040513          	addi	a0,s0,64
    1fc4:	00000613          	li	a2,0
    1fc8:	02900593          	li	a1,41
    1fcc:	d7dfe0ef          	jal	ra,d48 <i2c_start_transmit>
    1fd0:	00000613          	li	a2,0
    1fd4:	00000593          	li	a1,0
    1fd8:	04040513          	addi	a0,s0,64
    1fdc:	de1fe0ef          	jal	ra,dbc <i2c_write>
    1fe0:	00000613          	li	a2,0
    1fe4:	07c00593          	li	a1,124
    1fe8:	04040513          	addi	a0,s0,64
    1fec:	dd1fe0ef          	jal	ra,dbc <i2c_write>
    1ff0:	00100613          	li	a2,1
    1ff4:	00100593          	li	a1,1
    1ff8:	04040513          	addi	a0,s0,64
    1ffc:	dc1fe0ef          	jal	ra,dbc <i2c_write>
    2000:	04040513          	addi	a0,s0,64
    2004:	00000613          	li	a2,0
    2008:	02900593          	li	a1,41
    200c:	d3dfe0ef          	jal	ra,d48 <i2c_start_transmit>
    2010:	00000613          	li	a2,0
    2014:	00000593          	li	a1,0
    2018:	04040513          	addi	a0,s0,64
    201c:	da1fe0ef          	jal	ra,dbc <i2c_write>
    2020:	00000613          	li	a2,0
    2024:	07e00593          	li	a1,126
    2028:	04040513          	addi	a0,s0,64
    202c:	d91fe0ef          	jal	ra,dbc <i2c_write>
    2030:	00100613          	li	a2,1
    2034:	00200593          	li	a1,2
    2038:	04040513          	addi	a0,s0,64
    203c:	d81fe0ef          	jal	ra,dbc <i2c_write>
    2040:	04040513          	addi	a0,s0,64
    2044:	00000613          	li	a2,0
    2048:	02900593          	li	a1,41
    204c:	cfdfe0ef          	jal	ra,d48 <i2c_start_transmit>
    2050:	00000613          	li	a2,0
    2054:	00000593          	li	a1,0
    2058:	04040513          	addi	a0,s0,64
    205c:	d61fe0ef          	jal	ra,dbc <i2c_write>
    2060:	00000613          	li	a2,0
    2064:	08200593          	li	a1,130
    2068:	04040513          	addi	a0,s0,64
    206c:	d51fe0ef          	jal	ra,dbc <i2c_write>
    2070:	00100613          	li	a2,1
    2074:	00000593          	li	a1,0
    2078:	04040513          	addi	a0,s0,64
    207c:	d41fe0ef          	jal	ra,dbc <i2c_write>
    2080:	04040513          	addi	a0,s0,64
    2084:	00000613          	li	a2,0
    2088:	02900593          	li	a1,41
    208c:	cbdfe0ef          	jal	ra,d48 <i2c_start_transmit>
    2090:	00000613          	li	a2,0
    2094:	00000593          	li	a1,0
    2098:	04040513          	addi	a0,s0,64
    209c:	d21fe0ef          	jal	ra,dbc <i2c_write>
    20a0:	00000613          	li	a2,0
    20a4:	07700593          	li	a1,119
    20a8:	04040513          	addi	a0,s0,64
    20ac:	d11fe0ef          	jal	ra,dbc <i2c_write>
    20b0:	00100613          	li	a2,1
    20b4:	00100593          	li	a1,1
    20b8:	04040513          	addi	a0,s0,64
    20bc:	d01fe0ef          	jal	ra,dbc <i2c_write>
    20c0:	04040513          	addi	a0,s0,64
    20c4:	00000613          	li	a2,0
    20c8:	02900593          	li	a1,41
    20cc:	c7dfe0ef          	jal	ra,d48 <i2c_start_transmit>
    20d0:	00000613          	li	a2,0
    20d4:	00000593          	li	a1,0
    20d8:	04040513          	addi	a0,s0,64
    20dc:	ce1fe0ef          	jal	ra,dbc <i2c_write>
    20e0:	00000613          	li	a2,0
    20e4:	08100593          	li	a1,129
    20e8:	04040513          	addi	a0,s0,64
    20ec:	cd1fe0ef          	jal	ra,dbc <i2c_write>
    20f0:	00100613          	li	a2,1
    20f4:	08b00593          	li	a1,139
    20f8:	04040513          	addi	a0,s0,64
    20fc:	cc1fe0ef          	jal	ra,dbc <i2c_write>
    2100:	0000d5b7          	lui	a1,0xd
    2104:	80058593          	addi	a1,a1,-2048 # c800 <fast_osc_frequency+0x87d2>
    2108:	05400513          	li	a0,84
    210c:	ef9fe0ef          	jal	ra,1004 <VL53L1X_writeReg16Bit>
    2110:	04040513          	addi	a0,s0,64
    2114:	00000613          	li	a2,0
    2118:	02900593          	li	a1,41
    211c:	c2dfe0ef          	jal	ra,d48 <i2c_start_transmit>
    2120:	00000613          	li	a2,0
    2124:	00000593          	li	a1,0
    2128:	04040513          	addi	a0,s0,64
    212c:	c91fe0ef          	jal	ra,dbc <i2c_write>
    2130:	00000613          	li	a2,0
    2134:	04f00593          	li	a1,79
    2138:	04040513          	addi	a0,s0,64
    213c:	c81fe0ef          	jal	ra,dbc <i2c_write>
    2140:	00200593          	li	a1,2
    2144:	00100613          	li	a2,1
    2148:	04040513          	addi	a0,s0,64
    214c:	c71fe0ef          	jal	ra,dbc <i2c_write>
    2150:	00300513          	li	a0,3
    2154:	cf4ff0ef          	jal	ra,1648 <VL53L1X_setDistanceMode>
    2158:	0000c537          	lui	a0,0xc
    215c:	35050513          	addi	a0,a0,848 # c350 <fast_osc_frequency+0x8322>
    2160:	874ff0ef          	jal	ra,11d4 <VL53L1X_setMeasurementTimingBudget.part.0>
    2164:	02200513          	li	a0,34
    2168:	b78ff0ef          	jal	ra,14e0 <VL53L1X_readReg16Bit>
    216c:	00812403          	lw	s0,8(sp)
    2170:	00c12083          	lw	ra,12(sp)
    2174:	00412483          	lw	s1,4(sp)
    2178:	00251593          	slli	a1,a0,0x2
    217c:	01059593          	slli	a1,a1,0x10
    2180:	0105d593          	srli	a1,a1,0x10
    2184:	01e00513          	li	a0,30
    2188:	01010113          	addi	sp,sp,16
    218c:	e79fe06f          	j	1004 <VL53L1X_writeReg16Bit>

00002190 <VL53L1X_setMeasurementTimingBudget>:
    2190:	000017b7          	lui	a5,0x1
    2194:	1b078793          	addi	a5,a5,432 # 11b0 <VL53L1X_dataReady>
    2198:	00a7f463          	bgeu	a5,a0,21a0 <VL53L1X_setMeasurementTimingBudget+0x10>
    219c:	838ff06f          	j	11d4 <VL53L1X_setMeasurementTimingBudget.part.0>
    21a0:	00000513          	li	a0,0
    21a4:	00008067          	ret

000021a8 <VL53L1X_timeoutMicrosecondsToMclks>:
    21a8:	0015d793          	srli	a5,a1,0x1
    21ac:	00c51513          	slli	a0,a0,0xc
    21b0:	ff010113          	addi	sp,sp,-16
    21b4:	00f50533          	add	a0,a0,a5
    21b8:	00112623          	sw	ra,12(sp)
    21bc:	08d010ef          	jal	ra,3a48 <__udivsi3>
    21c0:	00c12083          	lw	ra,12(sp)
    21c4:	01010113          	addi	sp,sp,16
    21c8:	00008067          	ret

000021cc <VL53L1X_encodeTimeout>:
    21cc:	04050463          	beqz	a0,2214 <VL53L1X_encodeTimeout+0x48>
    21d0:	fff50713          	addi	a4,a0,-1
    21d4:	f0077793          	andi	a5,a4,-256
    21d8:	04078263          	beqz	a5,221c <VL53L1X_encodeTimeout+0x50>
    21dc:	00000793          	li	a5,0
    21e0:	00175713          	srli	a4,a4,0x1
    21e4:	00178793          	addi	a5,a5,1
    21e8:	01079793          	slli	a5,a5,0x10
    21ec:	f0077693          	andi	a3,a4,-256
    21f0:	0107d793          	srli	a5,a5,0x10
    21f4:	fe0696e3          	bnez	a3,21e0 <VL53L1X_encodeTimeout+0x14>
    21f8:	00879513          	slli	a0,a5,0x8
    21fc:	01051513          	slli	a0,a0,0x10
    2200:	01055513          	srli	a0,a0,0x10
    2204:	00e56533          	or	a0,a0,a4
    2208:	01051513          	slli	a0,a0,0x10
    220c:	01055513          	srli	a0,a0,0x10
    2210:	00008067          	ret
    2214:	00000513          	li	a0,0
    2218:	00008067          	ret
    221c:	00000513          	li	a0,0
    2220:	fe5ff06f          	j	2204 <VL53L1X_encodeTimeout+0x38>

00002224 <VL53L1X_calcMacroPeriod>:
    2224:	000047b7          	lui	a5,0x4
    2228:	02e7d583          	lhu	a1,46(a5) # 402e <fast_osc_frequency>
    222c:	ff010113          	addi	sp,sp,-16
    2230:	00812423          	sw	s0,8(sp)
    2234:	00050413          	mv	s0,a0
    2238:	40000537          	lui	a0,0x40000
    223c:	00112623          	sw	ra,12(sp)
    2240:	009010ef          	jal	ra,3a48 <__udivsi3>
    2244:	00351593          	slli	a1,a0,0x3
    2248:	00a585b3          	add	a1,a1,a0
    224c:	00140413          	addi	s0,s0,1
    2250:	00141513          	slli	a0,s0,0x1
    2254:	00859593          	slli	a1,a1,0x8
    2258:	0065d593          	srli	a1,a1,0x6
    225c:	0fe57513          	andi	a0,a0,254
    2260:	72c010ef          	jal	ra,398c <__mulsi3>
    2264:	00c12083          	lw	ra,12(sp)
    2268:	00812403          	lw	s0,8(sp)
    226c:	00655513          	srli	a0,a0,0x6
    2270:	01010113          	addi	sp,sp,16
    2274:	00008067          	ret

00002278 <VL53L1X_startContinuous>:
    2278:	000047b7          	lui	a5,0x4
    227c:	00050593          	mv	a1,a0
    2280:	02c7d503          	lhu	a0,44(a5) # 402c <osc_calibrate_val>
    2284:	ff010113          	addi	sp,sp,-16
    2288:	00112623          	sw	ra,12(sp)
    228c:	00812423          	sw	s0,8(sp)
    2290:	6fc010ef          	jal	ra,398c <__mulsi3>
    2294:	00050593          	mv	a1,a0
    2298:	06c00513          	li	a0,108
    229c:	00008437          	lui	s0,0x8
    22a0:	de9fe0ef          	jal	ra,1088 <VL53L1X_writeReg32Bit>
    22a4:	04040513          	addi	a0,s0,64 # 8040 <fast_osc_frequency+0x4012>
    22a8:	00000613          	li	a2,0
    22ac:	02900593          	li	a1,41
    22b0:	a99fe0ef          	jal	ra,d48 <i2c_start_transmit>
    22b4:	00000613          	li	a2,0
    22b8:	00000593          	li	a1,0
    22bc:	04040513          	addi	a0,s0,64
    22c0:	afdfe0ef          	jal	ra,dbc <i2c_write>
    22c4:	00000613          	li	a2,0
    22c8:	08600593          	li	a1,134
    22cc:	04040513          	addi	a0,s0,64
    22d0:	aedfe0ef          	jal	ra,dbc <i2c_write>
    22d4:	00100613          	li	a2,1
    22d8:	00100593          	li	a1,1
    22dc:	04040513          	addi	a0,s0,64
    22e0:	addfe0ef          	jal	ra,dbc <i2c_write>
    22e4:	04040513          	addi	a0,s0,64
    22e8:	00000613          	li	a2,0
    22ec:	02900593          	li	a1,41
    22f0:	a59fe0ef          	jal	ra,d48 <i2c_start_transmit>
    22f4:	00000613          	li	a2,0
    22f8:	00000593          	li	a1,0
    22fc:	04040513          	addi	a0,s0,64
    2300:	abdfe0ef          	jal	ra,dbc <i2c_write>
    2304:	00000613          	li	a2,0
    2308:	08700593          	li	a1,135
    230c:	04040513          	addi	a0,s0,64
    2310:	aadfe0ef          	jal	ra,dbc <i2c_write>
    2314:	04040513          	addi	a0,s0,64
    2318:	00812403          	lw	s0,8(sp)
    231c:	00c12083          	lw	ra,12(sp)
    2320:	00100613          	li	a2,1
    2324:	04000593          	li	a1,64
    2328:	01010113          	addi	sp,sp,16
    232c:	a91fe06f          	j	dbc <i2c_write>

00002330 <VL53L1X_readResults>:
    2330:	ff010113          	addi	sp,sp,-16
    2334:	00812423          	sw	s0,8(sp)
    2338:	00008437          	lui	s0,0x8
    233c:	04040513          	addi	a0,s0,64 # 8040 <fast_osc_frequency+0x4012>
    2340:	00000613          	li	a2,0
    2344:	02900593          	li	a1,41
    2348:	00112623          	sw	ra,12(sp)
    234c:	00912223          	sw	s1,4(sp)
    2350:	9f9fe0ef          	jal	ra,d48 <i2c_start_transmit>
    2354:	00000613          	li	a2,0
    2358:	00000593          	li	a1,0
    235c:	04040513          	addi	a0,s0,64
    2360:	a5dfe0ef          	jal	ra,dbc <i2c_write>
    2364:	00100613          	li	a2,1
    2368:	08900593          	li	a1,137
    236c:	04040513          	addi	a0,s0,64
    2370:	a4dfe0ef          	jal	ra,dbc <i2c_write>
    2374:	00100613          	li	a2,1
    2378:	04040513          	addi	a0,s0,64
    237c:	02900593          	li	a1,41
    2380:	9c9fe0ef          	jal	ra,d48 <i2c_start_transmit>
    2384:	00000593          	li	a1,0
    2388:	04040513          	addi	a0,s0,64
    238c:	ac5fe0ef          	jal	ra,e50 <i2c_read>
    2390:	000044b7          	lui	s1,0x4
    2394:	00048493          	mv	s1,s1
    2398:	00050793          	mv	a5,a0
    239c:	00000593          	li	a1,0
    23a0:	04040513          	addi	a0,s0,64
    23a4:	00f48023          	sb	a5,0(s1) # 4000 <results>
    23a8:	aa9fe0ef          	jal	ra,e50 <i2c_read>
    23ac:	00000593          	li	a1,0
    23b0:	04040513          	addi	a0,s0,64
    23b4:	a9dfe0ef          	jal	ra,e50 <i2c_read>
    23b8:	00050793          	mv	a5,a0
    23bc:	00000593          	li	a1,0
    23c0:	04040513          	addi	a0,s0,64
    23c4:	00f480a3          	sb	a5,1(s1)
    23c8:	a89fe0ef          	jal	ra,e50 <i2c_read>
    23cc:	00851793          	slli	a5,a0,0x8
    23d0:	00000593          	li	a1,0
    23d4:	04040513          	addi	a0,s0,64
    23d8:	00f49123          	sh	a5,2(s1)
    23dc:	a75fe0ef          	jal	ra,e50 <i2c_read>
    23e0:	0024d703          	lhu	a4,2(s1)
    23e4:	00050793          	mv	a5,a0
    23e8:	00000593          	li	a1,0
    23ec:	00e7e7b3          	or	a5,a5,a4
    23f0:	04040513          	addi	a0,s0,64
    23f4:	00f49123          	sh	a5,2(s1)
    23f8:	a59fe0ef          	jal	ra,e50 <i2c_read>
    23fc:	00000593          	li	a1,0
    2400:	04040513          	addi	a0,s0,64
    2404:	a4dfe0ef          	jal	ra,e50 <i2c_read>
    2408:	00000593          	li	a1,0
    240c:	04040513          	addi	a0,s0,64
    2410:	a41fe0ef          	jal	ra,e50 <i2c_read>
    2414:	00851793          	slli	a5,a0,0x8
    2418:	00000593          	li	a1,0
    241c:	04040513          	addi	a0,s0,64
    2420:	00f49223          	sh	a5,4(s1)
    2424:	a2dfe0ef          	jal	ra,e50 <i2c_read>
    2428:	0044d703          	lhu	a4,4(s1)
    242c:	00050793          	mv	a5,a0
    2430:	00000593          	li	a1,0
    2434:	00e7e7b3          	or	a5,a5,a4
    2438:	04040513          	addi	a0,s0,64
    243c:	00f49223          	sh	a5,4(s1)
    2440:	a11fe0ef          	jal	ra,e50 <i2c_read>
    2444:	00000593          	li	a1,0
    2448:	04040513          	addi	a0,s0,64
    244c:	a05fe0ef          	jal	ra,e50 <i2c_read>
    2450:	00000593          	li	a1,0
    2454:	04040513          	addi	a0,s0,64
    2458:	9f9fe0ef          	jal	ra,e50 <i2c_read>
    245c:	00000593          	li	a1,0
    2460:	04040513          	addi	a0,s0,64
    2464:	9edfe0ef          	jal	ra,e50 <i2c_read>
    2468:	00000593          	li	a1,0
    246c:	04040513          	addi	a0,s0,64
    2470:	9e1fe0ef          	jal	ra,e50 <i2c_read>
    2474:	00851793          	slli	a5,a0,0x8
    2478:	00000593          	li	a1,0
    247c:	04040513          	addi	a0,s0,64
    2480:	00f49323          	sh	a5,6(s1)
    2484:	9cdfe0ef          	jal	ra,e50 <i2c_read>
    2488:	0064d703          	lhu	a4,6(s1)
    248c:	00050793          	mv	a5,a0
    2490:	00000593          	li	a1,0
    2494:	00e7e7b3          	or	a5,a5,a4
    2498:	04040513          	addi	a0,s0,64
    249c:	00f49323          	sh	a5,6(s1)
    24a0:	9b1fe0ef          	jal	ra,e50 <i2c_read>
    24a4:	00851793          	slli	a5,a0,0x8
    24a8:	00100593          	li	a1,1
    24ac:	04040513          	addi	a0,s0,64
    24b0:	00f49423          	sh	a5,8(s1)
    24b4:	99dfe0ef          	jal	ra,e50 <i2c_read>
    24b8:	0084d783          	lhu	a5,8(s1)
    24bc:	00c12083          	lw	ra,12(sp)
    24c0:	00812403          	lw	s0,8(sp)
    24c4:	00f56533          	or	a0,a0,a5
    24c8:	00a49423          	sh	a0,8(s1)
    24cc:	00412483          	lw	s1,4(sp)
    24d0:	01010113          	addi	sp,sp,16
    24d4:	00008067          	ret

000024d8 <VL53L1X_setupManualCalibration>:
    24d8:	ff010113          	addi	sp,sp,-16
    24dc:	00b00513          	li	a0,11
    24e0:	00112623          	sw	ra,12(sp)
    24e4:	00812423          	sw	s0,8(sp)
    24e8:	00912223          	sw	s1,4(sp)
    24ec:	01212023          	sw	s2,0(sp)
    24f0:	c45fe0ef          	jal	ra,1134 <VL53L1X_readReg>
    24f4:	00050793          	mv	a5,a0
    24f8:	00004437          	lui	s0,0x4
    24fc:	00800513          	li	a0,8
    2500:	02f402a3          	sb	a5,37(s0) # 4025 <saved_vhv_init>
    2504:	c31fe0ef          	jal	ra,1134 <VL53L1X_readReg>
    2508:	02544483          	lbu	s1,37(s0)
    250c:	00008437          	lui	s0,0x8
    2510:	00050793          	mv	a5,a0
    2514:	00004937          	lui	s2,0x4
    2518:	04040513          	addi	a0,s0,64 # 8040 <fast_osc_frequency+0x4012>
    251c:	00000613          	li	a2,0
    2520:	02900593          	li	a1,41
    2524:	02f90223          	sb	a5,36(s2) # 4024 <saved_vhv_timeout>
    2528:	821fe0ef          	jal	ra,d48 <i2c_start_transmit>
    252c:	00000613          	li	a2,0
    2530:	00000593          	li	a1,0
    2534:	04040513          	addi	a0,s0,64
    2538:	885fe0ef          	jal	ra,dbc <i2c_write>
    253c:	00000613          	li	a2,0
    2540:	00b00593          	li	a1,11
    2544:	04040513          	addi	a0,s0,64
    2548:	875fe0ef          	jal	ra,dbc <i2c_write>
    254c:	07f4f493          	andi	s1,s1,127
    2550:	00048593          	mv	a1,s1
    2554:	00100613          	li	a2,1
    2558:	04040513          	addi	a0,s0,64
    255c:	861fe0ef          	jal	ra,dbc <i2c_write>
    2560:	04040513          	addi	a0,s0,64
    2564:	00000613          	li	a2,0
    2568:	02900593          	li	a1,41
    256c:	02494483          	lbu	s1,36(s2)
    2570:	fd8fe0ef          	jal	ra,d48 <i2c_start_transmit>
    2574:	00000613          	li	a2,0
    2578:	00000593          	li	a1,0
    257c:	04040513          	addi	a0,s0,64
    2580:	83dfe0ef          	jal	ra,dbc <i2c_write>
    2584:	00000613          	li	a2,0
    2588:	00800593          	li	a1,8
    258c:	04040513          	addi	a0,s0,64
    2590:	0034f493          	andi	s1,s1,3
    2594:	829fe0ef          	jal	ra,dbc <i2c_write>
    2598:	00c48493          	addi	s1,s1,12
    259c:	00048593          	mv	a1,s1
    25a0:	00100613          	li	a2,1
    25a4:	04040513          	addi	a0,s0,64
    25a8:	815fe0ef          	jal	ra,dbc <i2c_write>
    25ac:	04040513          	addi	a0,s0,64
    25b0:	00000613          	li	a2,0
    25b4:	02900593          	li	a1,41
    25b8:	f90fe0ef          	jal	ra,d48 <i2c_start_transmit>
    25bc:	00000613          	li	a2,0
    25c0:	00000593          	li	a1,0
    25c4:	04040513          	addi	a0,s0,64
    25c8:	ff4fe0ef          	jal	ra,dbc <i2c_write>
    25cc:	00000613          	li	a2,0
    25d0:	04d00593          	li	a1,77
    25d4:	04040513          	addi	a0,s0,64
    25d8:	fe4fe0ef          	jal	ra,dbc <i2c_write>
    25dc:	00100613          	li	a2,1
    25e0:	00100593          	li	a1,1
    25e4:	04040513          	addi	a0,s0,64
    25e8:	fd4fe0ef          	jal	ra,dbc <i2c_write>
    25ec:	0d800513          	li	a0,216
    25f0:	b45fe0ef          	jal	ra,1134 <VL53L1X_readReg>
    25f4:	00050493          	mv	s1,a0
    25f8:	00000613          	li	a2,0
    25fc:	04040513          	addi	a0,s0,64
    2600:	02900593          	li	a1,41
    2604:	f44fe0ef          	jal	ra,d48 <i2c_start_transmit>
    2608:	00000613          	li	a2,0
    260c:	00000593          	li	a1,0
    2610:	04040513          	addi	a0,s0,64
    2614:	fa8fe0ef          	jal	ra,dbc <i2c_write>
    2618:	00000613          	li	a2,0
    261c:	04700593          	li	a1,71
    2620:	04040513          	addi	a0,s0,64
    2624:	f98fe0ef          	jal	ra,dbc <i2c_write>
    2628:	04040513          	addi	a0,s0,64
    262c:	00812403          	lw	s0,8(sp)
    2630:	00c12083          	lw	ra,12(sp)
    2634:	00012903          	lw	s2,0(sp)
    2638:	00048593          	mv	a1,s1
    263c:	00412483          	lw	s1,4(sp)
    2640:	00100613          	li	a2,1
    2644:	01010113          	addi	sp,sp,16
    2648:	f74fe06f          	j	dbc <i2c_write>

0000264c <VL53L1X_getRangingData>:
    264c:	ff010113          	addi	sp,sp,-16
    2650:	00812423          	sw	s0,8(sp)
    2654:	00004437          	lui	s0,0x4
    2658:	00040413          	mv	s0,s0
    265c:	00645683          	lhu	a3,6(s0) # 4006 <results+0x6>
    2660:	00044703          	lbu	a4,0(s0)
    2664:	00112623          	sw	ra,12(sp)
    2668:	00669793          	slli	a5,a3,0x6
    266c:	40d787b3          	sub	a5,a5,a3
    2670:	00379793          	slli	a5,a5,0x3
    2674:	40d787b3          	sub	a5,a5,a3
    2678:	00279793          	slli	a5,a5,0x2
    267c:	40d787b3          	sub	a5,a5,a3
    2680:	40078793          	addi	a5,a5,1024
    2684:	00b7d793          	srli	a5,a5,0xb
    2688:	00912223          	sw	s1,4(sp)
    268c:	01200613          	li	a2,18
    2690:	00f41623          	sh	a5,12(s0)
    2694:	06e66463          	bltu	a2,a4,26fc <VL53L1X_getRangingData+0xb0>
    2698:	000047b7          	lui	a5,0x4
    269c:	c7478793          	addi	a5,a5,-908 # 3c74 <strlen+0x134>
    26a0:	00271713          	slli	a4,a4,0x2
    26a4:	00f70733          	add	a4,a4,a5
    26a8:	00072783          	lw	a5,0(a4)
    26ac:	00078067          	jr	a5
    26b0:	00500793          	li	a5,5
    26b4:	00f42823          	sw	a5,16(s0)
    26b8:	00845503          	lhu	a0,8(s0)
    26bc:	000044b7          	lui	s1,0x4
    26c0:	1f0010ef          	jal	ra,38b0 <__floatunsisf>
    26c4:	ed04a583          	lw	a1,-304(s1) # 3ed0 <__clz_tab+0x100>
    26c8:	6b9000ef          	jal	ra,3580 <__mulsf3>
    26cc:	00050793          	mv	a5,a0
    26d0:	00445503          	lhu	a0,4(s0)
    26d4:	00f42a23          	sw	a5,20(s0)
    26d8:	1d8010ef          	jal	ra,38b0 <__floatunsisf>
    26dc:	ed04a583          	lw	a1,-304(s1)
    26e0:	6a1000ef          	jal	ra,3580 <__mulsf3>
    26e4:	00c12083          	lw	ra,12(sp)
    26e8:	00a42c23          	sw	a0,24(s0)
    26ec:	00812403          	lw	s0,8(sp)
    26f0:	00412483          	lw	s1,4(sp)
    26f4:	01010113          	addi	sp,sp,16
    26f8:	00008067          	ret
    26fc:	0ff00793          	li	a5,255
    2700:	00f42823          	sw	a5,16(s0)
    2704:	fb5ff06f          	j	26b8 <VL53L1X_getRangingData+0x6c>
    2708:	00a00793          	li	a5,10
    270c:	00f42823          	sw	a5,16(s0)
    2710:	fa9ff06f          	j	26b8 <VL53L1X_getRangingData+0x6c>
    2714:	00200793          	li	a5,2
    2718:	00f42823          	sw	a5,16(s0)
    271c:	f9dff06f          	j	26b8 <VL53L1X_getRangingData+0x6c>
    2720:	00400793          	li	a5,4
    2724:	00f42823          	sw	a5,16(s0)
    2728:	f91ff06f          	j	26b8 <VL53L1X_getRangingData+0x6c>
    272c:	00900793          	li	a5,9
    2730:	00f42823          	sw	a5,16(s0)
    2734:	f85ff06f          	j	26b8 <VL53L1X_getRangingData+0x6c>
    2738:	00d00793          	li	a5,13
    273c:	00f42823          	sw	a5,16(s0)
    2740:	f79ff06f          	j	26b8 <VL53L1X_getRangingData+0x6c>
    2744:	00100793          	li	a5,1
    2748:	00f42823          	sw	a5,16(s0)
    274c:	f6dff06f          	j	26b8 <VL53L1X_getRangingData+0x6c>
    2750:	00700793          	li	a5,7
    2754:	00f42823          	sw	a5,16(s0)
    2758:	f61ff06f          	j	26b8 <VL53L1X_getRangingData+0x6c>
    275c:	00300793          	li	a5,3
    2760:	00f42823          	sw	a5,16(s0)
    2764:	f55ff06f          	j	26b8 <VL53L1X_getRangingData+0x6c>
    2768:	00144783          	lbu	a5,1(s0)
    276c:	00079863          	bnez	a5,277c <VL53L1X_getRangingData+0x130>
    2770:	00600793          	li	a5,6
    2774:	00f42823          	sw	a5,16(s0)
    2778:	f41ff06f          	j	26b8 <VL53L1X_getRangingData+0x6c>
    277c:	00042823          	sw	zero,16(s0)
    2780:	f39ff06f          	j	26b8 <VL53L1X_getRangingData+0x6c>

00002784 <VL53L1X_updateDSS>:
    2784:	000047b7          	lui	a5,0x4
    2788:	00078793          	mv	a5,a5
    278c:	0027d583          	lhu	a1,2(a5) # 4002 <results+0x2>
    2790:	02058063          	beqz	a1,27b0 <VL53L1X_updateDSS+0x2c>
    2794:	0087d503          	lhu	a0,8(a5)
    2798:	0047d703          	lhu	a4,4(a5)
    279c:	000107b7          	lui	a5,0x10
    27a0:	00e50533          	add	a0,a0,a4
    27a4:	00f57c63          	bgeu	a0,a5,27bc <VL53L1X_updateDSS+0x38>
    27a8:	01051513          	slli	a0,a0,0x10
    27ac:	00b57e63          	bgeu	a0,a1,27c8 <VL53L1X_updateDSS+0x44>
    27b0:	000085b7          	lui	a1,0x8
    27b4:	05400513          	li	a0,84
    27b8:	84dfe06f          	j	1004 <VL53L1X_writeReg16Bit>
    27bc:	fff78513          	addi	a0,a5,-1 # ffff <fast_osc_frequency+0xbfd1>
    27c0:	01051513          	slli	a0,a0,0x10
    27c4:	feb566e3          	bltu	a0,a1,27b0 <VL53L1X_updateDSS+0x2c>
    27c8:	ff010113          	addi	sp,sp,-16
    27cc:	00112623          	sw	ra,12(sp)
    27d0:	278010ef          	jal	ra,3a48 <__udivsi3>
    27d4:	00050593          	mv	a1,a0
    27d8:	0a000537          	lui	a0,0xa000
    27dc:	26c010ef          	jal	ra,3a48 <__udivsi3>
    27e0:	000107b7          	lui	a5,0x10
    27e4:	00f56463          	bltu	a0,a5,27ec <VL53L1X_updateDSS+0x68>
    27e8:	fff78513          	addi	a0,a5,-1 # ffff <fast_osc_frequency+0xbfd1>
    27ec:	00c12083          	lw	ra,12(sp)
    27f0:	01051593          	slli	a1,a0,0x10
    27f4:	0105d593          	srli	a1,a1,0x10
    27f8:	05400513          	li	a0,84
    27fc:	01010113          	addi	sp,sp,16
    2800:	805fe06f          	j	1004 <VL53L1X_writeReg16Bit>

00002804 <VL53L1X_read>:
    2804:	ff010113          	addi	sp,sp,-16
    2808:	00112623          	sw	ra,12(sp)
    280c:	00812423          	sw	s0,8(sp)
    2810:	00912223          	sw	s1,4(sp)
    2814:	06050663          	beqz	a0,2880 <VL53L1X_read+0x7c>
    2818:	c20fe0ef          	jal	ra,c38 <get_time_ms>
    281c:	000044b7          	lui	s1,0x4
    2820:	02a49523          	sh	a0,42(s1) # 402a <timeout_start_ms>
    2824:	00004437          	lui	s0,0x4
    2828:	03100513          	li	a0,49
    282c:	909fe0ef          	jal	ra,1134 <VL53L1X_readReg>
    2830:	00157513          	andi	a0,a0,1
    2834:	04050663          	beqz	a0,2880 <VL53L1X_read+0x7c>
    2838:	02845783          	lhu	a5,40(s0) # 4028 <io_timeout>
    283c:	fe0786e3          	beqz	a5,2828 <VL53L1X_read+0x24>
    2840:	bf8fe0ef          	jal	ra,c38 <get_time_ms>
    2844:	02a4d703          	lhu	a4,42(s1)
    2848:	02845783          	lhu	a5,40(s0)
    284c:	40e50533          	sub	a0,a0,a4
    2850:	01051513          	slli	a0,a0,0x10
    2854:	01055513          	srli	a0,a0,0x10
    2858:	fca7f8e3          	bgeu	a5,a0,2828 <VL53L1X_read+0x24>
    285c:	00c12083          	lw	ra,12(sp)
    2860:	00812403          	lw	s0,8(sp)
    2864:	000047b7          	lui	a5,0x4
    2868:	00100713          	li	a4,1
    286c:	02e783a3          	sb	a4,39(a5) # 4027 <did_timeout>
    2870:	00412483          	lw	s1,4(sp)
    2874:	00000513          	li	a0,0
    2878:	01010113          	addi	sp,sp,16
    287c:	00008067          	ret
    2880:	00004437          	lui	s0,0x4
    2884:	aadff0ef          	jal	ra,2330 <VL53L1X_readResults>
    2888:	02644783          	lbu	a5,38(s0) # 4026 <calibrated>
    288c:	06078663          	beqz	a5,28f8 <VL53L1X_read+0xf4>
    2890:	ef5ff0ef          	jal	ra,2784 <VL53L1X_updateDSS>
    2894:	00008437          	lui	s0,0x8
    2898:	db5ff0ef          	jal	ra,264c <VL53L1X_getRangingData>
    289c:	04040513          	addi	a0,s0,64 # 8040 <fast_osc_frequency+0x4012>
    28a0:	00000613          	li	a2,0
    28a4:	02900593          	li	a1,41
    28a8:	ca0fe0ef          	jal	ra,d48 <i2c_start_transmit>
    28ac:	00000613          	li	a2,0
    28b0:	00000593          	li	a1,0
    28b4:	04040513          	addi	a0,s0,64
    28b8:	d04fe0ef          	jal	ra,dbc <i2c_write>
    28bc:	00000613          	li	a2,0
    28c0:	08600593          	li	a1,134
    28c4:	04040513          	addi	a0,s0,64
    28c8:	cf4fe0ef          	jal	ra,dbc <i2c_write>
    28cc:	04040513          	addi	a0,s0,64
    28d0:	00100613          	li	a2,1
    28d4:	00100593          	li	a1,1
    28d8:	ce4fe0ef          	jal	ra,dbc <i2c_write>
    28dc:	00c12083          	lw	ra,12(sp)
    28e0:	00812403          	lw	s0,8(sp)
    28e4:	000047b7          	lui	a5,0x4
    28e8:	00c7d503          	lhu	a0,12(a5) # 400c <ranging_data>
    28ec:	00412483          	lw	s1,4(sp)
    28f0:	01010113          	addi	sp,sp,16
    28f4:	00008067          	ret
    28f8:	be1ff0ef          	jal	ra,24d8 <VL53L1X_setupManualCalibration>
    28fc:	00100793          	li	a5,1
    2900:	02f40323          	sb	a5,38(s0)
    2904:	f8dff06f          	j	2890 <VL53L1X_read+0x8c>

00002908 <VL53L1X_pdateDSS>:
    2908:	e7dff06f          	j	2784 <VL53L1X_updateDSS>

0000290c <sdram_test>:
    290c:	00004537          	lui	a0,0x4
    2910:	ff010113          	addi	sp,sp,-16
    2914:	cc050513          	addi	a0,a0,-832 # 3cc0 <strlen+0x180>
    2918:	00812423          	sw	s0,8(sp)
    291c:	00912223          	sw	s1,4(sp)
    2920:	01212023          	sw	s2,0(sp)
    2924:	00112623          	sw	ra,12(sp)
    2928:	00000413          	li	s0,0
    292c:	96cfe0ef          	jal	ra,a98 <xprintf>
    2930:	01000937          	lui	s2,0x1000
    2934:	008004b7          	lui	s1,0x800
    2938:	00040593          	mv	a1,s0
    293c:	01240533          	add	a0,s0,s2
    2940:	00440413          	addi	s0,s0,4
    2944:	edcfd0ef          	jal	ra,20 <put32>
    2948:	fe9418e3          	bne	s0,s1,2938 <sdram_test+0x2c>
    294c:	00004537          	lui	a0,0x4
    2950:	cd450513          	addi	a0,a0,-812 # 3cd4 <strlen+0x194>
    2954:	944fe0ef          	jal	ra,a98 <xprintf>
    2958:	00000413          	li	s0,0
    295c:	010004b7          	lui	s1,0x1000
    2960:	00800937          	lui	s2,0x800
    2964:	00c0006f          	j	2970 <sdram_test+0x64>
    2968:	00440413          	addi	s0,s0,4
    296c:	05240263          	beq	s0,s2,29b0 <sdram_test+0xa4>
    2970:	00940533          	add	a0,s0,s1
    2974:	eb4fd0ef          	jal	ra,28 <get32>
    2978:	fe8508e3          	beq	a0,s0,2968 <sdram_test+0x5c>
    297c:	00050693          	mv	a3,a0
    2980:	00004537          	lui	a0,0x4
    2984:	00040613          	mv	a2,s0
    2988:	00040593          	mv	a1,s0
    298c:	ce850513          	addi	a0,a0,-792 # 3ce8 <strlen+0x1a8>
    2990:	908fe0ef          	jal	ra,a98 <xprintf>
    2994:	00c12083          	lw	ra,12(sp)
    2998:	00812403          	lw	s0,8(sp)
    299c:	00412483          	lw	s1,4(sp)
    29a0:	00012903          	lw	s2,0(sp)
    29a4:	fff00513          	li	a0,-1
    29a8:	01010113          	addi	sp,sp,16
    29ac:	00008067          	ret
    29b0:	00c12083          	lw	ra,12(sp)
    29b4:	00812403          	lw	s0,8(sp)
    29b8:	00412483          	lw	s1,4(sp)
    29bc:	00012903          	lw	s2,0(sp)
    29c0:	00000513          	li	a0,0
    29c4:	01010113          	addi	sp,sp,16
    29c8:	00008067          	ret

000029cc <main>:
    29cc:	00008537          	lui	a0,0x8
    29d0:	000017b7          	lui	a5,0x1
    29d4:	ff010113          	addi	sp,sp,-16
    29d8:	00004737          	lui	a4,0x4
    29dc:	c7478793          	addi	a5,a5,-908 # c74 <uart_putc>
    29e0:	04050513          	addi	a0,a0,64 # 8040 <fast_osc_frequency+0x4012>
    29e4:	00112623          	sw	ra,12(sp)
    29e8:	02f72023          	sw	a5,32(a4) # 4020 <xfunc_output>
    29ec:	00812423          	sw	s0,8(sp)
    29f0:	00912223          	sw	s1,4(sp)
    29f4:	ad8fe0ef          	jal	ra,ccc <i2c_init>
    29f8:	a10ff0ef          	jal	ra,1c08 <VL53L1X_init>
    29fc:	00300513          	li	a0,3
    2a00:	c49fe0ef          	jal	ra,1648 <VL53L1X_setDistanceMode>
    2a04:	0000c537          	lui	a0,0xc
    2a08:	35050513          	addi	a0,a0,848 # c350 <fast_osc_frequency+0x8322>
    2a0c:	f84ff0ef          	jal	ra,2190 <VL53L1X_setMeasurementTimingBudget>
    2a10:	1f400513          	li	a0,500
    2a14:	865ff0ef          	jal	ra,2278 <VL53L1X_startContinuous>
    2a18:	ef5ff0ef          	jal	ra,290c <sdram_test>
    2a1c:	08051663          	bnez	a0,2aa8 <main+0xdc>
    2a20:	00004537          	lui	a0,0x4
    2a24:	d1850513          	addi	a0,a0,-744 # 3d18 <strlen+0x1d8>
    2a28:	870fe0ef          	jal	ra,a98 <xprintf>
    2a2c:	00004537          	lui	a0,0x4
    2a30:	d4c50513          	addi	a0,a0,-692 # 3d4c <strlen+0x20c>
    2a34:	864fe0ef          	jal	ra,a98 <xprintf>
    2a38:	000044b7          	lui	s1,0x4
    2a3c:	00004437          	lui	s0,0x4
    2a40:	1f400513          	li	a0,500
    2a44:	00000593          	li	a1,0
    2a48:	960fe0ef          	jal	ra,ba8 <wait_ms>
    2a4c:	05500593          	li	a1,85
    2a50:	00008537          	lui	a0,0x8
    2a54:	dccfd0ef          	jal	ra,20 <put32>
    2a58:	1f400513          	li	a0,500
    2a5c:	00000593          	li	a1,0
    2a60:	948fe0ef          	jal	ra,ba8 <wait_ms>
    2a64:	0aa00593          	li	a1,170
    2a68:	00008537          	lui	a0,0x8
    2a6c:	db4fd0ef          	jal	ra,20 <put32>
    2a70:	00100513          	li	a0,1
    2a74:	d91ff0ef          	jal	ra,2804 <VL53L1X_read>
    2a78:	00050593          	mv	a1,a0
    2a7c:	d6848513          	addi	a0,s1,-664 # 3d68 <strlen+0x228>
    2a80:	818fe0ef          	jal	ra,a98 <xprintf>
    2a84:	9b4fe0ef          	jal	ra,c38 <get_time_ms>
    2a88:	3e800613          	li	a2,1000
    2a8c:	00000693          	li	a3,0
    2a90:	028000ef          	jal	ra,2ab8 <__udivdi3>
    2a94:	00050613          	mv	a2,a0
    2a98:	00058693          	mv	a3,a1
    2a9c:	d7440513          	addi	a0,s0,-652 # 3d74 <strlen+0x234>
    2aa0:	ff9fd0ef          	jal	ra,a98 <xprintf>
    2aa4:	f9dff06f          	j	2a40 <main+0x74>
    2aa8:	00004537          	lui	a0,0x4
    2aac:	d3050513          	addi	a0,a0,-720 # 3d30 <strlen+0x1f0>
    2ab0:	fe9fd0ef          	jal	ra,a98 <xprintf>
    2ab4:	f79ff06f          	j	2a2c <main+0x60>

00002ab8 <__udivdi3>:
    2ab8:	fd010113          	addi	sp,sp,-48
    2abc:	02812423          	sw	s0,40(sp)
    2ac0:	01712623          	sw	s7,12(sp)
    2ac4:	02112623          	sw	ra,44(sp)
    2ac8:	02912223          	sw	s1,36(sp)
    2acc:	03212023          	sw	s2,32(sp)
    2ad0:	01312e23          	sw	s3,28(sp)
    2ad4:	01412c23          	sw	s4,24(sp)
    2ad8:	01512a23          	sw	s5,20(sp)
    2adc:	01612823          	sw	s6,16(sp)
    2ae0:	01812423          	sw	s8,8(sp)
    2ae4:	01912223          	sw	s9,4(sp)
    2ae8:	00050b93          	mv	s7,a0
    2aec:	00058413          	mv	s0,a1
    2af0:	38069c63          	bnez	a3,2e88 <__udivdi3+0x3d0>
    2af4:	000044b7          	lui	s1,0x4
    2af8:	00060913          	mv	s2,a2
    2afc:	00050a13          	mv	s4,a0
    2b00:	dd048493          	addi	s1,s1,-560 # 3dd0 <__clz_tab>
    2b04:	12c5f863          	bgeu	a1,a2,2c34 <__udivdi3+0x17c>
    2b08:	000107b7          	lui	a5,0x10
    2b0c:	00058c13          	mv	s8,a1
    2b10:	10f67863          	bgeu	a2,a5,2c20 <__udivdi3+0x168>
    2b14:	0ff00713          	li	a4,255
    2b18:	00c73733          	sltu	a4,a4,a2
    2b1c:	00371713          	slli	a4,a4,0x3
    2b20:	00e657b3          	srl	a5,a2,a4
    2b24:	00f484b3          	add	s1,s1,a5
    2b28:	0004c683          	lbu	a3,0(s1)
    2b2c:	00e68733          	add	a4,a3,a4
    2b30:	02000693          	li	a3,32
    2b34:	40e687b3          	sub	a5,a3,a4
    2b38:	00e68c63          	beq	a3,a4,2b50 <__udivdi3+0x98>
    2b3c:	00f41433          	sll	s0,s0,a5
    2b40:	00ebd733          	srl	a4,s7,a4
    2b44:	00f61933          	sll	s2,a2,a5
    2b48:	00876c33          	or	s8,a4,s0
    2b4c:	00fb9a33          	sll	s4,s7,a5
    2b50:	01095b13          	srli	s6,s2,0x10
    2b54:	000b0593          	mv	a1,s6
    2b58:	000c0513          	mv	a0,s8
    2b5c:	735000ef          	jal	ra,3a90 <__umodsi3>
    2b60:	00050493          	mv	s1,a0
    2b64:	000b0593          	mv	a1,s6
    2b68:	01091a93          	slli	s5,s2,0x10
    2b6c:	000c0513          	mv	a0,s8
    2b70:	6d9000ef          	jal	ra,3a48 <__udivsi3>
    2b74:	010ada93          	srli	s5,s5,0x10
    2b78:	00050413          	mv	s0,a0
    2b7c:	00050593          	mv	a1,a0
    2b80:	000a8513          	mv	a0,s5
    2b84:	609000ef          	jal	ra,398c <__mulsi3>
    2b88:	01049493          	slli	s1,s1,0x10
    2b8c:	010a5713          	srli	a4,s4,0x10
    2b90:	00e4e733          	or	a4,s1,a4
    2b94:	00040993          	mv	s3,s0
    2b98:	00a77e63          	bgeu	a4,a0,2bb4 <__udivdi3+0xfc>
    2b9c:	01270733          	add	a4,a4,s2
    2ba0:	fff40993          	addi	s3,s0,-1
    2ba4:	01276863          	bltu	a4,s2,2bb4 <__udivdi3+0xfc>
    2ba8:	00a77663          	bgeu	a4,a0,2bb4 <__udivdi3+0xfc>
    2bac:	ffe40993          	addi	s3,s0,-2
    2bb0:	01270733          	add	a4,a4,s2
    2bb4:	40a70433          	sub	s0,a4,a0
    2bb8:	000b0593          	mv	a1,s6
    2bbc:	00040513          	mv	a0,s0
    2bc0:	6d1000ef          	jal	ra,3a90 <__umodsi3>
    2bc4:	00050493          	mv	s1,a0
    2bc8:	000b0593          	mv	a1,s6
    2bcc:	00040513          	mv	a0,s0
    2bd0:	679000ef          	jal	ra,3a48 <__udivsi3>
    2bd4:	010a1a13          	slli	s4,s4,0x10
    2bd8:	00050413          	mv	s0,a0
    2bdc:	00050593          	mv	a1,a0
    2be0:	01049493          	slli	s1,s1,0x10
    2be4:	000a8513          	mv	a0,s5
    2be8:	010a5a13          	srli	s4,s4,0x10
    2bec:	5a1000ef          	jal	ra,398c <__mulsi3>
    2bf0:	0144ea33          	or	s4,s1,s4
    2bf4:	00040613          	mv	a2,s0
    2bf8:	00aa7c63          	bgeu	s4,a0,2c10 <__udivdi3+0x158>
    2bfc:	01490a33          	add	s4,s2,s4
    2c00:	fff40613          	addi	a2,s0,-1
    2c04:	012a6663          	bltu	s4,s2,2c10 <__udivdi3+0x158>
    2c08:	00aa7463          	bgeu	s4,a0,2c10 <__udivdi3+0x158>
    2c0c:	ffe40613          	addi	a2,s0,-2
    2c10:	01099793          	slli	a5,s3,0x10
    2c14:	00c7e7b3          	or	a5,a5,a2
    2c18:	00000493          	li	s1,0
    2c1c:	1300006f          	j	2d4c <__udivdi3+0x294>
    2c20:	010007b7          	lui	a5,0x1000
    2c24:	01000713          	li	a4,16
    2c28:	eef66ce3          	bltu	a2,a5,2b20 <__udivdi3+0x68>
    2c2c:	01800713          	li	a4,24
    2c30:	ef1ff06f          	j	2b20 <__udivdi3+0x68>
    2c34:	00068993          	mv	s3,a3
    2c38:	00061a63          	bnez	a2,2c4c <__udivdi3+0x194>
    2c3c:	00000593          	li	a1,0
    2c40:	00100513          	li	a0,1
    2c44:	605000ef          	jal	ra,3a48 <__udivsi3>
    2c48:	00050913          	mv	s2,a0
    2c4c:	000107b7          	lui	a5,0x10
    2c50:	12f97c63          	bgeu	s2,a5,2d88 <__udivdi3+0x2d0>
    2c54:	0ff00793          	li	a5,255
    2c58:	0127f463          	bgeu	a5,s2,2c60 <__udivdi3+0x1a8>
    2c5c:	00800993          	li	s3,8
    2c60:	013957b3          	srl	a5,s2,s3
    2c64:	00f484b3          	add	s1,s1,a5
    2c68:	0004c783          	lbu	a5,0(s1)
    2c6c:	02000693          	li	a3,32
    2c70:	013787b3          	add	a5,a5,s3
    2c74:	40f68733          	sub	a4,a3,a5
    2c78:	12f69263          	bne	a3,a5,2d9c <__udivdi3+0x2e4>
    2c7c:	41240433          	sub	s0,s0,s2
    2c80:	00100493          	li	s1,1
    2c84:	01095a93          	srli	s5,s2,0x10
    2c88:	000a8593          	mv	a1,s5
    2c8c:	00040513          	mv	a0,s0
    2c90:	601000ef          	jal	ra,3a90 <__umodsi3>
    2c94:	00050993          	mv	s3,a0
    2c98:	000a8593          	mv	a1,s5
    2c9c:	00040513          	mv	a0,s0
    2ca0:	01091b13          	slli	s6,s2,0x10
    2ca4:	5a5000ef          	jal	ra,3a48 <__udivsi3>
    2ca8:	010b5b13          	srli	s6,s6,0x10
    2cac:	00050413          	mv	s0,a0
    2cb0:	00050593          	mv	a1,a0
    2cb4:	000b0513          	mv	a0,s6
    2cb8:	4d5000ef          	jal	ra,398c <__mulsi3>
    2cbc:	01099993          	slli	s3,s3,0x10
    2cc0:	010a5713          	srli	a4,s4,0x10
    2cc4:	00e9e733          	or	a4,s3,a4
    2cc8:	00040b93          	mv	s7,s0
    2ccc:	00a77e63          	bgeu	a4,a0,2ce8 <__udivdi3+0x230>
    2cd0:	01270733          	add	a4,a4,s2
    2cd4:	fff40b93          	addi	s7,s0,-1
    2cd8:	01276863          	bltu	a4,s2,2ce8 <__udivdi3+0x230>
    2cdc:	00a77663          	bgeu	a4,a0,2ce8 <__udivdi3+0x230>
    2ce0:	ffe40b93          	addi	s7,s0,-2
    2ce4:	01270733          	add	a4,a4,s2
    2ce8:	40a70433          	sub	s0,a4,a0
    2cec:	000a8593          	mv	a1,s5
    2cf0:	00040513          	mv	a0,s0
    2cf4:	59d000ef          	jal	ra,3a90 <__umodsi3>
    2cf8:	00050993          	mv	s3,a0
    2cfc:	000a8593          	mv	a1,s5
    2d00:	00040513          	mv	a0,s0
    2d04:	545000ef          	jal	ra,3a48 <__udivsi3>
    2d08:	010a1a13          	slli	s4,s4,0x10
    2d0c:	00050413          	mv	s0,a0
    2d10:	00050593          	mv	a1,a0
    2d14:	01099993          	slli	s3,s3,0x10
    2d18:	000b0513          	mv	a0,s6
    2d1c:	010a5a13          	srli	s4,s4,0x10
    2d20:	46d000ef          	jal	ra,398c <__mulsi3>
    2d24:	0149ea33          	or	s4,s3,s4
    2d28:	00040613          	mv	a2,s0
    2d2c:	00aa7c63          	bgeu	s4,a0,2d44 <__udivdi3+0x28c>
    2d30:	01490a33          	add	s4,s2,s4
    2d34:	fff40613          	addi	a2,s0,-1
    2d38:	012a6663          	bltu	s4,s2,2d44 <__udivdi3+0x28c>
    2d3c:	00aa7463          	bgeu	s4,a0,2d44 <__udivdi3+0x28c>
    2d40:	ffe40613          	addi	a2,s0,-2
    2d44:	010b9793          	slli	a5,s7,0x10
    2d48:	00c7e7b3          	or	a5,a5,a2
    2d4c:	00078513          	mv	a0,a5
    2d50:	00048593          	mv	a1,s1
    2d54:	02c12083          	lw	ra,44(sp)
    2d58:	02812403          	lw	s0,40(sp)
    2d5c:	02412483          	lw	s1,36(sp)
    2d60:	02012903          	lw	s2,32(sp)
    2d64:	01c12983          	lw	s3,28(sp)
    2d68:	01812a03          	lw	s4,24(sp)
    2d6c:	01412a83          	lw	s5,20(sp)
    2d70:	01012b03          	lw	s6,16(sp)
    2d74:	00c12b83          	lw	s7,12(sp)
    2d78:	00812c03          	lw	s8,8(sp)
    2d7c:	00412c83          	lw	s9,4(sp)
    2d80:	03010113          	addi	sp,sp,48
    2d84:	00008067          	ret
    2d88:	010007b7          	lui	a5,0x1000
    2d8c:	01000993          	li	s3,16
    2d90:	ecf968e3          	bltu	s2,a5,2c60 <__udivdi3+0x1a8>
    2d94:	01800993          	li	s3,24
    2d98:	ec9ff06f          	j	2c60 <__udivdi3+0x1a8>
    2d9c:	00e91933          	sll	s2,s2,a4
    2da0:	00f459b3          	srl	s3,s0,a5
    2da4:	00fbd7b3          	srl	a5,s7,a5
    2da8:	00e41433          	sll	s0,s0,a4
    2dac:	0087eab3          	or	s5,a5,s0
    2db0:	01095413          	srli	s0,s2,0x10
    2db4:	00040593          	mv	a1,s0
    2db8:	00098513          	mv	a0,s3
    2dbc:	00eb9a33          	sll	s4,s7,a4
    2dc0:	4d1000ef          	jal	ra,3a90 <__umodsi3>
    2dc4:	00050493          	mv	s1,a0
    2dc8:	00040593          	mv	a1,s0
    2dcc:	00098513          	mv	a0,s3
    2dd0:	01091b13          	slli	s6,s2,0x10
    2dd4:	475000ef          	jal	ra,3a48 <__udivsi3>
    2dd8:	010b5b13          	srli	s6,s6,0x10
    2ddc:	00050993          	mv	s3,a0
    2de0:	00050593          	mv	a1,a0
    2de4:	000b0513          	mv	a0,s6
    2de8:	3a5000ef          	jal	ra,398c <__mulsi3>
    2dec:	01049493          	slli	s1,s1,0x10
    2df0:	010ad793          	srli	a5,s5,0x10
    2df4:	00f4e7b3          	or	a5,s1,a5
    2df8:	00098b93          	mv	s7,s3
    2dfc:	00a7fe63          	bgeu	a5,a0,2e18 <__udivdi3+0x360>
    2e00:	012787b3          	add	a5,a5,s2
    2e04:	fff98b93          	addi	s7,s3,-1
    2e08:	0127e863          	bltu	a5,s2,2e18 <__udivdi3+0x360>
    2e0c:	00a7f663          	bgeu	a5,a0,2e18 <__udivdi3+0x360>
    2e10:	ffe98b93          	addi	s7,s3,-2
    2e14:	012787b3          	add	a5,a5,s2
    2e18:	40a789b3          	sub	s3,a5,a0
    2e1c:	00040593          	mv	a1,s0
    2e20:	00098513          	mv	a0,s3
    2e24:	46d000ef          	jal	ra,3a90 <__umodsi3>
    2e28:	00040593          	mv	a1,s0
    2e2c:	00050493          	mv	s1,a0
    2e30:	00098513          	mv	a0,s3
    2e34:	415000ef          	jal	ra,3a48 <__udivsi3>
    2e38:	010a9413          	slli	s0,s5,0x10
    2e3c:	00050993          	mv	s3,a0
    2e40:	00050593          	mv	a1,a0
    2e44:	01049493          	slli	s1,s1,0x10
    2e48:	000b0513          	mv	a0,s6
    2e4c:	01045413          	srli	s0,s0,0x10
    2e50:	33d000ef          	jal	ra,398c <__mulsi3>
    2e54:	0084e433          	or	s0,s1,s0
    2e58:	00098793          	mv	a5,s3
    2e5c:	00a47e63          	bgeu	s0,a0,2e78 <__udivdi3+0x3c0>
    2e60:	01240433          	add	s0,s0,s2
    2e64:	fff98793          	addi	a5,s3,-1
    2e68:	01246863          	bltu	s0,s2,2e78 <__udivdi3+0x3c0>
    2e6c:	00a47663          	bgeu	s0,a0,2e78 <__udivdi3+0x3c0>
    2e70:	ffe98793          	addi	a5,s3,-2
    2e74:	01240433          	add	s0,s0,s2
    2e78:	010b9493          	slli	s1,s7,0x10
    2e7c:	40a40433          	sub	s0,s0,a0
    2e80:	00f4e4b3          	or	s1,s1,a5
    2e84:	e01ff06f          	j	2c84 <__udivdi3+0x1cc>
    2e88:	1ed5ee63          	bltu	a1,a3,3084 <__udivdi3+0x5cc>
    2e8c:	000107b7          	lui	a5,0x10
    2e90:	04f6f463          	bgeu	a3,a5,2ed8 <__udivdi3+0x420>
    2e94:	0ff00a93          	li	s5,255
    2e98:	00dab733          	sltu	a4,s5,a3
    2e9c:	00371713          	slli	a4,a4,0x3
    2ea0:	000047b7          	lui	a5,0x4
    2ea4:	00e6d5b3          	srl	a1,a3,a4
    2ea8:	dd078793          	addi	a5,a5,-560 # 3dd0 <__clz_tab>
    2eac:	00b787b3          	add	a5,a5,a1
    2eb0:	0007ca83          	lbu	s5,0(a5)
    2eb4:	02000793          	li	a5,32
    2eb8:	00ea8ab3          	add	s5,s5,a4
    2ebc:	415784b3          	sub	s1,a5,s5
    2ec0:	03579663          	bne	a5,s5,2eec <__udivdi3+0x434>
    2ec4:	00100793          	li	a5,1
    2ec8:	e886e2e3          	bltu	a3,s0,2d4c <__udivdi3+0x294>
    2ecc:	00cbb633          	sltu	a2,s7,a2
    2ed0:	00164793          	xori	a5,a2,1
    2ed4:	e79ff06f          	j	2d4c <__udivdi3+0x294>
    2ed8:	010007b7          	lui	a5,0x1000
    2edc:	01000713          	li	a4,16
    2ee0:	fcf6e0e3          	bltu	a3,a5,2ea0 <__udivdi3+0x3e8>
    2ee4:	01800713          	li	a4,24
    2ee8:	fb9ff06f          	j	2ea0 <__udivdi3+0x3e8>
    2eec:	01565cb3          	srl	s9,a2,s5
    2ef0:	009696b3          	sll	a3,a3,s1
    2ef4:	00dcecb3          	or	s9,s9,a3
    2ef8:	015459b3          	srl	s3,s0,s5
    2efc:	00941433          	sll	s0,s0,s1
    2f00:	015bdab3          	srl	s5,s7,s5
    2f04:	008aeab3          	or	s5,s5,s0
    2f08:	010cd413          	srli	s0,s9,0x10
    2f0c:	00040593          	mv	a1,s0
    2f10:	00098513          	mv	a0,s3
    2f14:	00961933          	sll	s2,a2,s1
    2f18:	379000ef          	jal	ra,3a90 <__umodsi3>
    2f1c:	00050a13          	mv	s4,a0
    2f20:	00040593          	mv	a1,s0
    2f24:	00098513          	mv	a0,s3
    2f28:	010c9b13          	slli	s6,s9,0x10
    2f2c:	31d000ef          	jal	ra,3a48 <__udivsi3>
    2f30:	010b5b13          	srli	s6,s6,0x10
    2f34:	00050993          	mv	s3,a0
    2f38:	00050593          	mv	a1,a0
    2f3c:	000b0513          	mv	a0,s6
    2f40:	24d000ef          	jal	ra,398c <__mulsi3>
    2f44:	010a1a13          	slli	s4,s4,0x10
    2f48:	010ad713          	srli	a4,s5,0x10
    2f4c:	00ea6733          	or	a4,s4,a4
    2f50:	00098c13          	mv	s8,s3
    2f54:	00a77e63          	bgeu	a4,a0,2f70 <__udivdi3+0x4b8>
    2f58:	01970733          	add	a4,a4,s9
    2f5c:	fff98c13          	addi	s8,s3,-1
    2f60:	01976863          	bltu	a4,s9,2f70 <__udivdi3+0x4b8>
    2f64:	00a77663          	bgeu	a4,a0,2f70 <__udivdi3+0x4b8>
    2f68:	ffe98c13          	addi	s8,s3,-2
    2f6c:	01970733          	add	a4,a4,s9
    2f70:	40a709b3          	sub	s3,a4,a0
    2f74:	00040593          	mv	a1,s0
    2f78:	00098513          	mv	a0,s3
    2f7c:	315000ef          	jal	ra,3a90 <__umodsi3>
    2f80:	00040593          	mv	a1,s0
    2f84:	00050a13          	mv	s4,a0
    2f88:	00098513          	mv	a0,s3
    2f8c:	2bd000ef          	jal	ra,3a48 <__udivsi3>
    2f90:	010a9413          	slli	s0,s5,0x10
    2f94:	00050993          	mv	s3,a0
    2f98:	00050593          	mv	a1,a0
    2f9c:	010a1a13          	slli	s4,s4,0x10
    2fa0:	000b0513          	mv	a0,s6
    2fa4:	01045413          	srli	s0,s0,0x10
    2fa8:	1e5000ef          	jal	ra,398c <__mulsi3>
    2fac:	008a6433          	or	s0,s4,s0
    2fb0:	00098613          	mv	a2,s3
    2fb4:	00a47e63          	bgeu	s0,a0,2fd0 <__udivdi3+0x518>
    2fb8:	01940433          	add	s0,s0,s9
    2fbc:	fff98613          	addi	a2,s3,-1
    2fc0:	01946863          	bltu	s0,s9,2fd0 <__udivdi3+0x518>
    2fc4:	00a47663          	bgeu	s0,a0,2fd0 <__udivdi3+0x518>
    2fc8:	ffe98613          	addi	a2,s3,-2
    2fcc:	01940433          	add	s0,s0,s9
    2fd0:	010c1793          	slli	a5,s8,0x10
    2fd4:	00010e37          	lui	t3,0x10
    2fd8:	00c7e7b3          	or	a5,a5,a2
    2fdc:	fffe0313          	addi	t1,t3,-1 # ffff <fast_osc_frequency+0xbfd1>
    2fe0:	0067f8b3          	and	a7,a5,t1
    2fe4:	00697333          	and	t1,s2,t1
    2fe8:	40a40433          	sub	s0,s0,a0
    2fec:	0107de93          	srli	t4,a5,0x10
    2ff0:	01095913          	srli	s2,s2,0x10
    2ff4:	00088513          	mv	a0,a7
    2ff8:	00030593          	mv	a1,t1
    2ffc:	191000ef          	jal	ra,398c <__mulsi3>
    3000:	00050813          	mv	a6,a0
    3004:	00090593          	mv	a1,s2
    3008:	00088513          	mv	a0,a7
    300c:	181000ef          	jal	ra,398c <__mulsi3>
    3010:	00050893          	mv	a7,a0
    3014:	00030593          	mv	a1,t1
    3018:	000e8513          	mv	a0,t4
    301c:	171000ef          	jal	ra,398c <__mulsi3>
    3020:	00050313          	mv	t1,a0
    3024:	00090593          	mv	a1,s2
    3028:	000e8513          	mv	a0,t4
    302c:	161000ef          	jal	ra,398c <__mulsi3>
    3030:	01085713          	srli	a4,a6,0x10
    3034:	006888b3          	add	a7,a7,t1
    3038:	01170733          	add	a4,a4,a7
    303c:	00050693          	mv	a3,a0
    3040:	00677463          	bgeu	a4,t1,3048 <__udivdi3+0x590>
    3044:	01c506b3          	add	a3,a0,t3
    3048:	01075513          	srli	a0,a4,0x10
    304c:	00d506b3          	add	a3,a0,a3
    3050:	02d46663          	bltu	s0,a3,307c <__udivdi3+0x5c4>
    3054:	bcd412e3          	bne	s0,a3,2c18 <__udivdi3+0x160>
    3058:	00010537          	lui	a0,0x10
    305c:	fff50513          	addi	a0,a0,-1 # ffff <fast_osc_frequency+0xbfd1>
    3060:	00a77733          	and	a4,a4,a0
    3064:	01071713          	slli	a4,a4,0x10
    3068:	00a87833          	and	a6,a6,a0
    306c:	009b9bb3          	sll	s7,s7,s1
    3070:	01070733          	add	a4,a4,a6
    3074:	00000493          	li	s1,0
    3078:	ccebfae3          	bgeu	s7,a4,2d4c <__udivdi3+0x294>
    307c:	fff78793          	addi	a5,a5,-1 # ffffff <fast_osc_frequency+0xffbfd1>
    3080:	b99ff06f          	j	2c18 <__udivdi3+0x160>
    3084:	00000493          	li	s1,0
    3088:	00000793          	li	a5,0
    308c:	cc1ff06f          	j	2d4c <__udivdi3+0x294>

00003090 <__umoddi3>:
    3090:	fd010113          	addi	sp,sp,-48
    3094:	02812423          	sw	s0,40(sp)
    3098:	02912223          	sw	s1,36(sp)
    309c:	03212023          	sw	s2,32(sp)
    30a0:	01612823          	sw	s6,16(sp)
    30a4:	02112623          	sw	ra,44(sp)
    30a8:	01312e23          	sw	s3,28(sp)
    30ac:	01412c23          	sw	s4,24(sp)
    30b0:	01512a23          	sw	s5,20(sp)
    30b4:	01712623          	sw	s7,12(sp)
    30b8:	01812423          	sw	s8,8(sp)
    30bc:	01912223          	sw	s9,4(sp)
    30c0:	01a12023          	sw	s10,0(sp)
    30c4:	00050913          	mv	s2,a0
    30c8:	00058b13          	mv	s6,a1
    30cc:	00050413          	mv	s0,a0
    30d0:	00058493          	mv	s1,a1
    30d4:	26069c63          	bnez	a3,334c <__umoddi3+0x2bc>
    30d8:	00004ab7          	lui	s5,0x4
    30dc:	00060a13          	mv	s4,a2
    30e0:	00068993          	mv	s3,a3
    30e4:	dd0a8a93          	addi	s5,s5,-560 # 3dd0 <__clz_tab>
    30e8:	14c5f263          	bgeu	a1,a2,322c <__umoddi3+0x19c>
    30ec:	000107b7          	lui	a5,0x10
    30f0:	12f67463          	bgeu	a2,a5,3218 <__umoddi3+0x188>
    30f4:	0ff00793          	li	a5,255
    30f8:	00c7f463          	bgeu	a5,a2,3100 <__umoddi3+0x70>
    30fc:	00800993          	li	s3,8
    3100:	013657b3          	srl	a5,a2,s3
    3104:	00fa8ab3          	add	s5,s5,a5
    3108:	000ac783          	lbu	a5,0(s5)
    310c:	02000713          	li	a4,32
    3110:	013787b3          	add	a5,a5,s3
    3114:	40f709b3          	sub	s3,a4,a5
    3118:	00f70c63          	beq	a4,a5,3130 <__umoddi3+0xa0>
    311c:	013b15b3          	sll	a1,s6,s3
    3120:	00f957b3          	srl	a5,s2,a5
    3124:	01361a33          	sll	s4,a2,s3
    3128:	00b7e4b3          	or	s1,a5,a1
    312c:	01391433          	sll	s0,s2,s3
    3130:	010a5a93          	srli	s5,s4,0x10
    3134:	000a8593          	mv	a1,s5
    3138:	00048513          	mv	a0,s1
    313c:	155000ef          	jal	ra,3a90 <__umodsi3>
    3140:	00050913          	mv	s2,a0
    3144:	000a8593          	mv	a1,s5
    3148:	010a1b13          	slli	s6,s4,0x10
    314c:	00048513          	mv	a0,s1
    3150:	0f9000ef          	jal	ra,3a48 <__udivsi3>
    3154:	010b5b13          	srli	s6,s6,0x10
    3158:	00050593          	mv	a1,a0
    315c:	000b0513          	mv	a0,s6
    3160:	02d000ef          	jal	ra,398c <__mulsi3>
    3164:	01091913          	slli	s2,s2,0x10
    3168:	01045793          	srli	a5,s0,0x10
    316c:	00f967b3          	or	a5,s2,a5
    3170:	00a7fa63          	bgeu	a5,a0,3184 <__umoddi3+0xf4>
    3174:	014787b3          	add	a5,a5,s4
    3178:	0147e663          	bltu	a5,s4,3184 <__umoddi3+0xf4>
    317c:	00a7f463          	bgeu	a5,a0,3184 <__umoddi3+0xf4>
    3180:	014787b3          	add	a5,a5,s4
    3184:	40a784b3          	sub	s1,a5,a0
    3188:	000a8593          	mv	a1,s5
    318c:	00048513          	mv	a0,s1
    3190:	101000ef          	jal	ra,3a90 <__umodsi3>
    3194:	00050913          	mv	s2,a0
    3198:	000a8593          	mv	a1,s5
    319c:	00048513          	mv	a0,s1
    31a0:	0a9000ef          	jal	ra,3a48 <__udivsi3>
    31a4:	01041413          	slli	s0,s0,0x10
    31a8:	00050593          	mv	a1,a0
    31ac:	01091913          	slli	s2,s2,0x10
    31b0:	000b0513          	mv	a0,s6
    31b4:	01045413          	srli	s0,s0,0x10
    31b8:	7d4000ef          	jal	ra,398c <__mulsi3>
    31bc:	00896433          	or	s0,s2,s0
    31c0:	00a47a63          	bgeu	s0,a0,31d4 <__umoddi3+0x144>
    31c4:	01440433          	add	s0,s0,s4
    31c8:	01446663          	bltu	s0,s4,31d4 <__umoddi3+0x144>
    31cc:	00a47463          	bgeu	s0,a0,31d4 <__umoddi3+0x144>
    31d0:	01440433          	add	s0,s0,s4
    31d4:	40a40433          	sub	s0,s0,a0
    31d8:	01345533          	srl	a0,s0,s3
    31dc:	00000593          	li	a1,0
    31e0:	02c12083          	lw	ra,44(sp)
    31e4:	02812403          	lw	s0,40(sp)
    31e8:	02412483          	lw	s1,36(sp)
    31ec:	02012903          	lw	s2,32(sp)
    31f0:	01c12983          	lw	s3,28(sp)
    31f4:	01812a03          	lw	s4,24(sp)
    31f8:	01412a83          	lw	s5,20(sp)
    31fc:	01012b03          	lw	s6,16(sp)
    3200:	00c12b83          	lw	s7,12(sp)
    3204:	00812c03          	lw	s8,8(sp)
    3208:	00412c83          	lw	s9,4(sp)
    320c:	00012d03          	lw	s10,0(sp)
    3210:	03010113          	addi	sp,sp,48
    3214:	00008067          	ret
    3218:	010007b7          	lui	a5,0x1000
    321c:	01000993          	li	s3,16
    3220:	eef660e3          	bltu	a2,a5,3100 <__umoddi3+0x70>
    3224:	01800993          	li	s3,24
    3228:	ed9ff06f          	j	3100 <__umoddi3+0x70>
    322c:	00061a63          	bnez	a2,3240 <__umoddi3+0x1b0>
    3230:	00000593          	li	a1,0
    3234:	00100513          	li	a0,1
    3238:	011000ef          	jal	ra,3a48 <__udivsi3>
    323c:	00050a13          	mv	s4,a0
    3240:	000107b7          	lui	a5,0x10
    3244:	0efa7a63          	bgeu	s4,a5,3338 <__umoddi3+0x2a8>
    3248:	0ff00793          	li	a5,255
    324c:	0147f463          	bgeu	a5,s4,3254 <__umoddi3+0x1c4>
    3250:	00800993          	li	s3,8
    3254:	013a57b3          	srl	a5,s4,s3
    3258:	00fa8ab3          	add	s5,s5,a5
    325c:	000ac783          	lbu	a5,0(s5)
    3260:	02000713          	li	a4,32
    3264:	414b04b3          	sub	s1,s6,s4
    3268:	013787b3          	add	a5,a5,s3
    326c:	40f709b3          	sub	s3,a4,a5
    3270:	ecf700e3          	beq	a4,a5,3130 <__umoddi3+0xa0>
    3274:	013a1a33          	sll	s4,s4,s3
    3278:	00fb5ab3          	srl	s5,s6,a5
    327c:	013b15b3          	sll	a1,s6,s3
    3280:	00f957b3          	srl	a5,s2,a5
    3284:	010a5493          	srli	s1,s4,0x10
    3288:	00b7eb33          	or	s6,a5,a1
    328c:	000a8513          	mv	a0,s5
    3290:	00048593          	mv	a1,s1
    3294:	7fc000ef          	jal	ra,3a90 <__umodsi3>
    3298:	00048593          	mv	a1,s1
    329c:	01391433          	sll	s0,s2,s3
    32a0:	010a1b93          	slli	s7,s4,0x10
    32a4:	00050913          	mv	s2,a0
    32a8:	000a8513          	mv	a0,s5
    32ac:	79c000ef          	jal	ra,3a48 <__udivsi3>
    32b0:	010bdb93          	srli	s7,s7,0x10
    32b4:	00050593          	mv	a1,a0
    32b8:	000b8513          	mv	a0,s7
    32bc:	6d0000ef          	jal	ra,398c <__mulsi3>
    32c0:	01091913          	slli	s2,s2,0x10
    32c4:	010b5793          	srli	a5,s6,0x10
    32c8:	00f967b3          	or	a5,s2,a5
    32cc:	00a7fa63          	bgeu	a5,a0,32e0 <__umoddi3+0x250>
    32d0:	014787b3          	add	a5,a5,s4
    32d4:	0147e663          	bltu	a5,s4,32e0 <__umoddi3+0x250>
    32d8:	00a7f463          	bgeu	a5,a0,32e0 <__umoddi3+0x250>
    32dc:	014787b3          	add	a5,a5,s4
    32e0:	40a78ab3          	sub	s5,a5,a0
    32e4:	00048593          	mv	a1,s1
    32e8:	000a8513          	mv	a0,s5
    32ec:	7a4000ef          	jal	ra,3a90 <__umodsi3>
    32f0:	00050913          	mv	s2,a0
    32f4:	00048593          	mv	a1,s1
    32f8:	000a8513          	mv	a0,s5
    32fc:	74c000ef          	jal	ra,3a48 <__udivsi3>
    3300:	00050593          	mv	a1,a0
    3304:	000b8513          	mv	a0,s7
    3308:	684000ef          	jal	ra,398c <__mulsi3>
    330c:	010b1593          	slli	a1,s6,0x10
    3310:	01091913          	slli	s2,s2,0x10
    3314:	0105d593          	srli	a1,a1,0x10
    3318:	00b965b3          	or	a1,s2,a1
    331c:	00a5fa63          	bgeu	a1,a0,3330 <__umoddi3+0x2a0>
    3320:	014585b3          	add	a1,a1,s4
    3324:	0145e663          	bltu	a1,s4,3330 <__umoddi3+0x2a0>
    3328:	00a5f463          	bgeu	a1,a0,3330 <__umoddi3+0x2a0>
    332c:	014585b3          	add	a1,a1,s4
    3330:	40a584b3          	sub	s1,a1,a0
    3334:	dfdff06f          	j	3130 <__umoddi3+0xa0>
    3338:	010007b7          	lui	a5,0x1000
    333c:	01000993          	li	s3,16
    3340:	f0fa6ae3          	bltu	s4,a5,3254 <__umoddi3+0x1c4>
    3344:	01800993          	li	s3,24
    3348:	f0dff06f          	j	3254 <__umoddi3+0x1c4>
    334c:	e8d5eae3          	bltu	a1,a3,31e0 <__umoddi3+0x150>
    3350:	000107b7          	lui	a5,0x10
    3354:	04f6fc63          	bgeu	a3,a5,33ac <__umoddi3+0x31c>
    3358:	0ff00a93          	li	s5,255
    335c:	00dab533          	sltu	a0,s5,a3
    3360:	00351513          	slli	a0,a0,0x3
    3364:	000047b7          	lui	a5,0x4
    3368:	00a6d733          	srl	a4,a3,a0
    336c:	dd078793          	addi	a5,a5,-560 # 3dd0 <__clz_tab>
    3370:	00e787b3          	add	a5,a5,a4
    3374:	0007ca83          	lbu	s5,0(a5)
    3378:	02000793          	li	a5,32
    337c:	00aa8ab3          	add	s5,s5,a0
    3380:	41578a33          	sub	s4,a5,s5
    3384:	03579e63          	bne	a5,s5,33c0 <__umoddi3+0x330>
    3388:	0166e463          	bltu	a3,s6,3390 <__umoddi3+0x300>
    338c:	00c96a63          	bltu	s2,a2,33a0 <__umoddi3+0x310>
    3390:	40c90433          	sub	s0,s2,a2
    3394:	40db05b3          	sub	a1,s6,a3
    3398:	00893533          	sltu	a0,s2,s0
    339c:	40a584b3          	sub	s1,a1,a0
    33a0:	00040513          	mv	a0,s0
    33a4:	00048593          	mv	a1,s1
    33a8:	e39ff06f          	j	31e0 <__umoddi3+0x150>
    33ac:	010007b7          	lui	a5,0x1000
    33b0:	01000513          	li	a0,16
    33b4:	faf6e8e3          	bltu	a3,a5,3364 <__umoddi3+0x2d4>
    33b8:	01800513          	li	a0,24
    33bc:	fa9ff06f          	j	3364 <__umoddi3+0x2d4>
    33c0:	014696b3          	sll	a3,a3,s4
    33c4:	015657b3          	srl	a5,a2,s5
    33c8:	00d7ec33          	or	s8,a5,a3
    33cc:	015b5d33          	srl	s10,s6,s5
    33d0:	014b15b3          	sll	a1,s6,s4
    33d4:	015954b3          	srl	s1,s2,s5
    33d8:	010c5b13          	srli	s6,s8,0x10
    33dc:	00b4e4b3          	or	s1,s1,a1
    33e0:	000d0513          	mv	a0,s10
    33e4:	000b0593          	mv	a1,s6
    33e8:	01461cb3          	sll	s9,a2,s4
    33ec:	6a4000ef          	jal	ra,3a90 <__umodsi3>
    33f0:	00050993          	mv	s3,a0
    33f4:	000b0593          	mv	a1,s6
    33f8:	000d0513          	mv	a0,s10
    33fc:	010c1b93          	slli	s7,s8,0x10
    3400:	648000ef          	jal	ra,3a48 <__udivsi3>
    3404:	010bdb93          	srli	s7,s7,0x10
    3408:	00050593          	mv	a1,a0
    340c:	01491433          	sll	s0,s2,s4
    3410:	00050913          	mv	s2,a0
    3414:	000b8513          	mv	a0,s7
    3418:	574000ef          	jal	ra,398c <__mulsi3>
    341c:	01099993          	slli	s3,s3,0x10
    3420:	0104d713          	srli	a4,s1,0x10
    3424:	00e9e733          	or	a4,s3,a4
    3428:	00090d13          	mv	s10,s2
    342c:	00a77e63          	bgeu	a4,a0,3448 <__umoddi3+0x3b8>
    3430:	01870733          	add	a4,a4,s8
    3434:	fff90d13          	addi	s10,s2,-1 # 7fffff <fast_osc_frequency+0x7fbfd1>
    3438:	01876863          	bltu	a4,s8,3448 <__umoddi3+0x3b8>
    343c:	00a77663          	bgeu	a4,a0,3448 <__umoddi3+0x3b8>
    3440:	ffe90d13          	addi	s10,s2,-2
    3444:	01870733          	add	a4,a4,s8
    3448:	40a70933          	sub	s2,a4,a0
    344c:	000b0593          	mv	a1,s6
    3450:	00090513          	mv	a0,s2
    3454:	63c000ef          	jal	ra,3a90 <__umodsi3>
    3458:	00050993          	mv	s3,a0
    345c:	000b0593          	mv	a1,s6
    3460:	00090513          	mv	a0,s2
    3464:	5e4000ef          	jal	ra,3a48 <__udivsi3>
    3468:	00050913          	mv	s2,a0
    346c:	00050593          	mv	a1,a0
    3470:	000b8513          	mv	a0,s7
    3474:	518000ef          	jal	ra,398c <__mulsi3>
    3478:	01049713          	slli	a4,s1,0x10
    347c:	01099993          	slli	s3,s3,0x10
    3480:	01075713          	srli	a4,a4,0x10
    3484:	00e9e733          	or	a4,s3,a4
    3488:	00090793          	mv	a5,s2
    348c:	00a77e63          	bgeu	a4,a0,34a8 <__umoddi3+0x418>
    3490:	01870733          	add	a4,a4,s8
    3494:	fff90793          	addi	a5,s2,-1
    3498:	01876863          	bltu	a4,s8,34a8 <__umoddi3+0x418>
    349c:	00a77663          	bgeu	a4,a0,34a8 <__umoddi3+0x418>
    34a0:	ffe90793          	addi	a5,s2,-2
    34a4:	01870733          	add	a4,a4,s8
    34a8:	00010eb7          	lui	t4,0x10
    34ac:	010d1d13          	slli	s10,s10,0x10
    34b0:	00fd6d33          	or	s10,s10,a5
    34b4:	fffe8793          	addi	a5,t4,-1 # ffff <fast_osc_frequency+0xbfd1>
    34b8:	00fd78b3          	and	a7,s10,a5
    34bc:	00fcf7b3          	and	a5,s9,a5
    34c0:	40a70733          	sub	a4,a4,a0
    34c4:	010d5d13          	srli	s10,s10,0x10
    34c8:	010cde13          	srli	t3,s9,0x10
    34cc:	00088513          	mv	a0,a7
    34d0:	00078593          	mv	a1,a5
    34d4:	4b8000ef          	jal	ra,398c <__mulsi3>
    34d8:	00050813          	mv	a6,a0
    34dc:	000e0593          	mv	a1,t3
    34e0:	00088513          	mv	a0,a7
    34e4:	4a8000ef          	jal	ra,398c <__mulsi3>
    34e8:	00050893          	mv	a7,a0
    34ec:	00078593          	mv	a1,a5
    34f0:	000d0513          	mv	a0,s10
    34f4:	498000ef          	jal	ra,398c <__mulsi3>
    34f8:	00050313          	mv	t1,a0
    34fc:	000e0593          	mv	a1,t3
    3500:	000d0513          	mv	a0,s10
    3504:	488000ef          	jal	ra,398c <__mulsi3>
    3508:	01085793          	srli	a5,a6,0x10
    350c:	006888b3          	add	a7,a7,t1
    3510:	011787b3          	add	a5,a5,a7
    3514:	0067f463          	bgeu	a5,t1,351c <__umoddi3+0x48c>
    3518:	01d50533          	add	a0,a0,t4
    351c:	0107d593          	srli	a1,a5,0x10
    3520:	00a585b3          	add	a1,a1,a0
    3524:	00010537          	lui	a0,0x10
    3528:	fff50513          	addi	a0,a0,-1 # ffff <fast_osc_frequency+0xbfd1>
    352c:	00a7f7b3          	and	a5,a5,a0
    3530:	01079793          	slli	a5,a5,0x10
    3534:	00a87533          	and	a0,a6,a0
    3538:	00a78533          	add	a0,a5,a0
    353c:	00b76663          	bltu	a4,a1,3548 <__umoddi3+0x4b8>
    3540:	00b71e63          	bne	a4,a1,355c <__umoddi3+0x4cc>
    3544:	00a47c63          	bgeu	s0,a0,355c <__umoddi3+0x4cc>
    3548:	41950633          	sub	a2,a0,s9
    354c:	00c537b3          	sltu	a5,a0,a2
    3550:	018787b3          	add	a5,a5,s8
    3554:	40f585b3          	sub	a1,a1,a5
    3558:	00060513          	mv	a0,a2
    355c:	40a40533          	sub	a0,s0,a0
    3560:	00a43433          	sltu	s0,s0,a0
    3564:	40b705b3          	sub	a1,a4,a1
    3568:	408585b3          	sub	a1,a1,s0
    356c:	01559433          	sll	s0,a1,s5
    3570:	01455533          	srl	a0,a0,s4
    3574:	00a46533          	or	a0,s0,a0
    3578:	0145d5b3          	srl	a1,a1,s4
    357c:	c65ff06f          	j	31e0 <__umoddi3+0x150>

00003580 <__mulsf3>:
    3580:	fe010113          	addi	sp,sp,-32
    3584:	01212823          	sw	s2,16(sp)
    3588:	01755913          	srli	s2,a0,0x17
    358c:	00912a23          	sw	s1,20(sp)
    3590:	01312623          	sw	s3,12(sp)
    3594:	01412423          	sw	s4,8(sp)
    3598:	00951493          	slli	s1,a0,0x9
    359c:	00112e23          	sw	ra,28(sp)
    35a0:	00812c23          	sw	s0,24(sp)
    35a4:	01512223          	sw	s5,4(sp)
    35a8:	0ff97913          	andi	s2,s2,255
    35ac:	00058a13          	mv	s4,a1
    35b0:	0094d493          	srli	s1,s1,0x9
    35b4:	01f55993          	srli	s3,a0,0x1f
    35b8:	08090663          	beqz	s2,3644 <__mulsf3+0xc4>
    35bc:	0ff00793          	li	a5,255
    35c0:	0af90263          	beq	s2,a5,3664 <__mulsf3+0xe4>
    35c4:	00349493          	slli	s1,s1,0x3
    35c8:	040007b7          	lui	a5,0x4000
    35cc:	00f4e4b3          	or	s1,s1,a5
    35d0:	f8190913          	addi	s2,s2,-127
    35d4:	00000a93          	li	s5,0
    35d8:	017a5513          	srli	a0,s4,0x17
    35dc:	009a1413          	slli	s0,s4,0x9
    35e0:	0ff57513          	andi	a0,a0,255
    35e4:	00945413          	srli	s0,s0,0x9
    35e8:	01fa5a13          	srli	s4,s4,0x1f
    35ec:	08050c63          	beqz	a0,3684 <__mulsf3+0x104>
    35f0:	0ff00793          	li	a5,255
    35f4:	0af50863          	beq	a0,a5,36a4 <__mulsf3+0x124>
    35f8:	00341413          	slli	s0,s0,0x3
    35fc:	040007b7          	lui	a5,0x4000
    3600:	00f46433          	or	s0,s0,a5
    3604:	f8150513          	addi	a0,a0,-127
    3608:	00000793          	li	a5,0
    360c:	002a9713          	slli	a4,s5,0x2
    3610:	00f76733          	or	a4,a4,a5
    3614:	00a90933          	add	s2,s2,a0
    3618:	fff70713          	addi	a4,a4,-1
    361c:	00e00693          	li	a3,14
    3620:	0149c833          	xor	a6,s3,s4
    3624:	00190893          	addi	a7,s2,1
    3628:	08e6ee63          	bltu	a3,a4,36c4 <__mulsf3+0x144>
    362c:	000046b7          	lui	a3,0x4
    3630:	00271713          	slli	a4,a4,0x2
    3634:	d9468693          	addi	a3,a3,-620 # 3d94 <strlen+0x254>
    3638:	00d70733          	add	a4,a4,a3
    363c:	00072703          	lw	a4,0(a4)
    3640:	00070067          	jr	a4
    3644:	02048a63          	beqz	s1,3678 <__mulsf3+0xf8>
    3648:	00048513          	mv	a0,s1
    364c:	4a8000ef          	jal	ra,3af4 <__clzsi2>
    3650:	ffb50793          	addi	a5,a0,-5
    3654:	f8a00913          	li	s2,-118
    3658:	00f494b3          	sll	s1,s1,a5
    365c:	40a90933          	sub	s2,s2,a0
    3660:	f75ff06f          	j	35d4 <__mulsf3+0x54>
    3664:	0ff00913          	li	s2,255
    3668:	00200a93          	li	s5,2
    366c:	f60486e3          	beqz	s1,35d8 <__mulsf3+0x58>
    3670:	00300a93          	li	s5,3
    3674:	f65ff06f          	j	35d8 <__mulsf3+0x58>
    3678:	00000913          	li	s2,0
    367c:	00100a93          	li	s5,1
    3680:	f59ff06f          	j	35d8 <__mulsf3+0x58>
    3684:	02040a63          	beqz	s0,36b8 <__mulsf3+0x138>
    3688:	00040513          	mv	a0,s0
    368c:	468000ef          	jal	ra,3af4 <__clzsi2>
    3690:	ffb50793          	addi	a5,a0,-5
    3694:	00f41433          	sll	s0,s0,a5
    3698:	f8a00793          	li	a5,-118
    369c:	40a78533          	sub	a0,a5,a0
    36a0:	f69ff06f          	j	3608 <__mulsf3+0x88>
    36a4:	0ff00513          	li	a0,255
    36a8:	00200793          	li	a5,2
    36ac:	f60400e3          	beqz	s0,360c <__mulsf3+0x8c>
    36b0:	00300793          	li	a5,3
    36b4:	f59ff06f          	j	360c <__mulsf3+0x8c>
    36b8:	00000513          	li	a0,0
    36bc:	00100793          	li	a5,1
    36c0:	f4dff06f          	j	360c <__mulsf3+0x8c>
    36c4:	00010f37          	lui	t5,0x10
    36c8:	ffff0e93          	addi	t4,t5,-1 # ffff <fast_osc_frequency+0xbfd1>
    36cc:	0104df93          	srli	t6,s1,0x10
    36d0:	01045793          	srli	a5,s0,0x10
    36d4:	01d4f4b3          	and	s1,s1,t4
    36d8:	01d47433          	and	s0,s0,t4
    36dc:	00048513          	mv	a0,s1
    36e0:	00040593          	mv	a1,s0
    36e4:	2a8000ef          	jal	ra,398c <__mulsi3>
    36e8:	00050313          	mv	t1,a0
    36ec:	00078593          	mv	a1,a5
    36f0:	00048513          	mv	a0,s1
    36f4:	298000ef          	jal	ra,398c <__mulsi3>
    36f8:	00050e13          	mv	t3,a0
    36fc:	00040593          	mv	a1,s0
    3700:	000f8513          	mv	a0,t6
    3704:	288000ef          	jal	ra,398c <__mulsi3>
    3708:	00050713          	mv	a4,a0
    370c:	00078593          	mv	a1,a5
    3710:	000f8513          	mv	a0,t6
    3714:	278000ef          	jal	ra,398c <__mulsi3>
    3718:	01035793          	srli	a5,t1,0x10
    371c:	00ee0e33          	add	t3,t3,a4
    3720:	01c787b3          	add	a5,a5,t3
    3724:	00e7f463          	bgeu	a5,a4,372c <__mulsf3+0x1ac>
    3728:	01e50533          	add	a0,a0,t5
    372c:	01d7f733          	and	a4,a5,t4
    3730:	01071713          	slli	a4,a4,0x10
    3734:	01d37333          	and	t1,t1,t4
    3738:	00670733          	add	a4,a4,t1
    373c:	00671413          	slli	s0,a4,0x6
    3740:	00803433          	snez	s0,s0
    3744:	0107d793          	srli	a5,a5,0x10
    3748:	01a75713          	srli	a4,a4,0x1a
    374c:	00e46733          	or	a4,s0,a4
    3750:	00a78433          	add	s0,a5,a0
    3754:	00641413          	slli	s0,s0,0x6
    3758:	00e46433          	or	s0,s0,a4
    375c:	080007b7          	lui	a5,0x8000
    3760:	00f477b3          	and	a5,s0,a5
    3764:	08078e63          	beqz	a5,3800 <__mulsf3+0x280>
    3768:	00145793          	srli	a5,s0,0x1
    376c:	00147413          	andi	s0,s0,1
    3770:	0087e433          	or	s0,a5,s0
    3774:	07f88713          	addi	a4,a7,127
    3778:	08e05863          	blez	a4,3808 <__mulsf3+0x288>
    377c:	00747793          	andi	a5,s0,7
    3780:	00078a63          	beqz	a5,3794 <__mulsf3+0x214>
    3784:	00f47793          	andi	a5,s0,15
    3788:	00400693          	li	a3,4
    378c:	00d78463          	beq	a5,a3,3794 <__mulsf3+0x214>
    3790:	00440413          	addi	s0,s0,4
    3794:	080007b7          	lui	a5,0x8000
    3798:	00f477b3          	and	a5,s0,a5
    379c:	00078a63          	beqz	a5,37b0 <__mulsf3+0x230>
    37a0:	f80007b7          	lui	a5,0xf8000
    37a4:	fff78793          	addi	a5,a5,-1 # f7ffffff <fast_osc_frequency+0xf7ffbfd1>
    37a8:	00f47433          	and	s0,s0,a5
    37ac:	08088713          	addi	a4,a7,128
    37b0:	0fe00793          	li	a5,254
    37b4:	00345413          	srli	s0,s0,0x3
    37b8:	0ae7da63          	bge	a5,a4,386c <__mulsf3+0x2ec>
    37bc:	00000413          	li	s0,0
    37c0:	0ff00713          	li	a4,255
    37c4:	0a80006f          	j	386c <__mulsf3+0x2ec>
    37c8:	00098813          	mv	a6,s3
    37cc:	00048413          	mv	s0,s1
    37d0:	000a8793          	mv	a5,s5
    37d4:	00200713          	li	a4,2
    37d8:	fee782e3          	beq	a5,a4,37bc <__mulsf3+0x23c>
    37dc:	00300713          	li	a4,3
    37e0:	08e78063          	beq	a5,a4,3860 <__mulsf3+0x2e0>
    37e4:	00100713          	li	a4,1
    37e8:	f8e796e3          	bne	a5,a4,3774 <__mulsf3+0x1f4>
    37ec:	00000413          	li	s0,0
    37f0:	00000713          	li	a4,0
    37f4:	0780006f          	j	386c <__mulsf3+0x2ec>
    37f8:	000a0813          	mv	a6,s4
    37fc:	fd9ff06f          	j	37d4 <__mulsf3+0x254>
    3800:	00090893          	mv	a7,s2
    3804:	f71ff06f          	j	3774 <__mulsf3+0x1f4>
    3808:	00100793          	li	a5,1
    380c:	40e787b3          	sub	a5,a5,a4
    3810:	01b00713          	li	a4,27
    3814:	fcf74ce3          	blt	a4,a5,37ec <__mulsf3+0x26c>
    3818:	09e88893          	addi	a7,a7,158
    381c:	00f457b3          	srl	a5,s0,a5
    3820:	01141433          	sll	s0,s0,a7
    3824:	00803433          	snez	s0,s0
    3828:	0087e433          	or	s0,a5,s0
    382c:	00747793          	andi	a5,s0,7
    3830:	00078a63          	beqz	a5,3844 <__mulsf3+0x2c4>
    3834:	00f47793          	andi	a5,s0,15
    3838:	00400713          	li	a4,4
    383c:	00e78463          	beq	a5,a4,3844 <__mulsf3+0x2c4>
    3840:	00440413          	addi	s0,s0,4
    3844:	040007b7          	lui	a5,0x4000
    3848:	00f477b3          	and	a5,s0,a5
    384c:	00345413          	srli	s0,s0,0x3
    3850:	fa0780e3          	beqz	a5,37f0 <__mulsf3+0x270>
    3854:	00000413          	li	s0,0
    3858:	00100713          	li	a4,1
    385c:	0100006f          	j	386c <__mulsf3+0x2ec>
    3860:	00400437          	lui	s0,0x400
    3864:	0ff00713          	li	a4,255
    3868:	00000813          	li	a6,0
    386c:	01771793          	slli	a5,a4,0x17
    3870:	00941413          	slli	s0,s0,0x9
    3874:	7f800737          	lui	a4,0x7f800
    3878:	00e7f7b3          	and	a5,a5,a4
    387c:	00945413          	srli	s0,s0,0x9
    3880:	0087e433          	or	s0,a5,s0
    3884:	01f81513          	slli	a0,a6,0x1f
    3888:	01c12083          	lw	ra,28(sp)
    388c:	00a46533          	or	a0,s0,a0
    3890:	01812403          	lw	s0,24(sp)
    3894:	01412483          	lw	s1,20(sp)
    3898:	01012903          	lw	s2,16(sp)
    389c:	00c12983          	lw	s3,12(sp)
    38a0:	00812a03          	lw	s4,8(sp)
    38a4:	00412a83          	lw	s5,4(sp)
    38a8:	02010113          	addi	sp,sp,32
    38ac:	00008067          	ret

000038b0 <__floatunsisf>:
    38b0:	ff010113          	addi	sp,sp,-16
    38b4:	00812423          	sw	s0,8(sp)
    38b8:	00112623          	sw	ra,12(sp)
    38bc:	00050413          	mv	s0,a0
    38c0:	00000793          	li	a5,0
    38c4:	02050463          	beqz	a0,38ec <__floatunsisf+0x3c>
    38c8:	22c000ef          	jal	ra,3af4 <__clzsi2>
    38cc:	09e00793          	li	a5,158
    38d0:	40a787b3          	sub	a5,a5,a0
    38d4:	09600713          	li	a4,150
    38d8:	02f74a63          	blt	a4,a5,390c <__floatunsisf+0x5c>
    38dc:	00800713          	li	a4,8
    38e0:	00a75663          	bge	a4,a0,38ec <__floatunsisf+0x3c>
    38e4:	ff850513          	addi	a0,a0,-8
    38e8:	00a41433          	sll	s0,s0,a0
    38ec:	00941413          	slli	s0,s0,0x9
    38f0:	00945413          	srli	s0,s0,0x9
    38f4:	01779513          	slli	a0,a5,0x17
    38f8:	00c12083          	lw	ra,12(sp)
    38fc:	00856533          	or	a0,a0,s0
    3900:	00812403          	lw	s0,8(sp)
    3904:	01010113          	addi	sp,sp,16
    3908:	00008067          	ret
    390c:	09900713          	li	a4,153
    3910:	02f75063          	bge	a4,a5,3930 <__floatunsisf+0x80>
    3914:	01b50713          	addi	a4,a0,27
    3918:	00500693          	li	a3,5
    391c:	00e41733          	sll	a4,s0,a4
    3920:	40a686b3          	sub	a3,a3,a0
    3924:	00e03733          	snez	a4,a4
    3928:	00d45433          	srl	s0,s0,a3
    392c:	00876433          	or	s0,a4,s0
    3930:	00500713          	li	a4,5
    3934:	00a75663          	bge	a4,a0,3940 <__floatunsisf+0x90>
    3938:	ffb50713          	addi	a4,a0,-5
    393c:	00e41433          	sll	s0,s0,a4
    3940:	fc000737          	lui	a4,0xfc000
    3944:	fff70713          	addi	a4,a4,-1 # fbffffff <fast_osc_frequency+0xfbffbfd1>
    3948:	00747693          	andi	a3,s0,7
    394c:	00e47733          	and	a4,s0,a4
    3950:	00068a63          	beqz	a3,3964 <__floatunsisf+0xb4>
    3954:	00f47413          	andi	s0,s0,15
    3958:	00400693          	li	a3,4
    395c:	00d40463          	beq	s0,a3,3964 <__floatunsisf+0xb4>
    3960:	00470713          	addi	a4,a4,4
    3964:	040006b7          	lui	a3,0x4000
    3968:	00d776b3          	and	a3,a4,a3
    396c:	00068c63          	beqz	a3,3984 <__floatunsisf+0xd4>
    3970:	fc0007b7          	lui	a5,0xfc000
    3974:	fff78793          	addi	a5,a5,-1 # fbffffff <fast_osc_frequency+0xfbffbfd1>
    3978:	00f77733          	and	a4,a4,a5
    397c:	09f00793          	li	a5,159
    3980:	40a787b3          	sub	a5,a5,a0
    3984:	00375413          	srli	s0,a4,0x3
    3988:	f65ff06f          	j	38ec <__floatunsisf+0x3c>

0000398c <__mulsi3>:
    398c:	00050613          	mv	a2,a0
    3990:	00000513          	li	a0,0
    3994:	0015f693          	andi	a3,a1,1
    3998:	00068463          	beqz	a3,39a0 <__mulsi3+0x14>
    399c:	00c50533          	add	a0,a0,a2
    39a0:	0015d593          	srli	a1,a1,0x1
    39a4:	00161613          	slli	a2,a2,0x1
    39a8:	fe0596e3          	bnez	a1,3994 <__mulsi3+0x8>
    39ac:	00008067          	ret

000039b0 <__muldi3>:
    39b0:	00050313          	mv	t1,a0
    39b4:	ff010113          	addi	sp,sp,-16
    39b8:	00060513          	mv	a0,a2
    39bc:	00068893          	mv	a7,a3
    39c0:	00112623          	sw	ra,12(sp)
    39c4:	00030613          	mv	a2,t1
    39c8:	00050693          	mv	a3,a0
    39cc:	00000713          	li	a4,0
    39d0:	00000793          	li	a5,0
    39d4:	00000813          	li	a6,0
    39d8:	0016fe13          	andi	t3,a3,1
    39dc:	00171e93          	slli	t4,a4,0x1
    39e0:	000e0c63          	beqz	t3,39f8 <__muldi3+0x48>
    39e4:	01060e33          	add	t3,a2,a6
    39e8:	010e3833          	sltu	a6,t3,a6
    39ec:	00e787b3          	add	a5,a5,a4
    39f0:	00f807b3          	add	a5,a6,a5
    39f4:	000e0813          	mv	a6,t3
    39f8:	01f65713          	srli	a4,a2,0x1f
    39fc:	0016d693          	srli	a3,a3,0x1
    3a00:	00eee733          	or	a4,t4,a4
    3a04:	00161613          	slli	a2,a2,0x1
    3a08:	fc0698e3          	bnez	a3,39d8 <__muldi3+0x28>
    3a0c:	00058663          	beqz	a1,3a18 <__muldi3+0x68>
    3a10:	f7dff0ef          	jal	ra,398c <__mulsi3>
    3a14:	00a787b3          	add	a5,a5,a0
    3a18:	00088a63          	beqz	a7,3a2c <__muldi3+0x7c>
    3a1c:	00030513          	mv	a0,t1
    3a20:	00088593          	mv	a1,a7
    3a24:	f69ff0ef          	jal	ra,398c <__mulsi3>
    3a28:	00f507b3          	add	a5,a0,a5
    3a2c:	00c12083          	lw	ra,12(sp)
    3a30:	00080513          	mv	a0,a6
    3a34:	00078593          	mv	a1,a5
    3a38:	01010113          	addi	sp,sp,16
    3a3c:	00008067          	ret

00003a40 <__divsi3>:
    3a40:	06054063          	bltz	a0,3aa0 <__umodsi3+0x10>
    3a44:	0605c663          	bltz	a1,3ab0 <__umodsi3+0x20>

00003a48 <__udivsi3>:
    3a48:	00058613          	mv	a2,a1
    3a4c:	00050593          	mv	a1,a0
    3a50:	fff00513          	li	a0,-1
    3a54:	02060c63          	beqz	a2,3a8c <__udivsi3+0x44>
    3a58:	00100693          	li	a3,1
    3a5c:	00b67a63          	bgeu	a2,a1,3a70 <__udivsi3+0x28>
    3a60:	00c05863          	blez	a2,3a70 <__udivsi3+0x28>
    3a64:	00161613          	slli	a2,a2,0x1
    3a68:	00169693          	slli	a3,a3,0x1
    3a6c:	feb66ae3          	bltu	a2,a1,3a60 <__udivsi3+0x18>
    3a70:	00000513          	li	a0,0
    3a74:	00c5e663          	bltu	a1,a2,3a80 <__udivsi3+0x38>
    3a78:	40c585b3          	sub	a1,a1,a2
    3a7c:	00d56533          	or	a0,a0,a3
    3a80:	0016d693          	srli	a3,a3,0x1
    3a84:	00165613          	srli	a2,a2,0x1
    3a88:	fe0696e3          	bnez	a3,3a74 <__udivsi3+0x2c>
    3a8c:	00008067          	ret

00003a90 <__umodsi3>:
    3a90:	00008293          	mv	t0,ra
    3a94:	fb5ff0ef          	jal	ra,3a48 <__udivsi3>
    3a98:	00058513          	mv	a0,a1
    3a9c:	00028067          	jr	t0
    3aa0:	40a00533          	neg	a0,a0
    3aa4:	00b04863          	bgtz	a1,3ab4 <__umodsi3+0x24>
    3aa8:	40b005b3          	neg	a1,a1
    3aac:	f9dff06f          	j	3a48 <__udivsi3>
    3ab0:	40b005b3          	neg	a1,a1
    3ab4:	00008293          	mv	t0,ra
    3ab8:	f91ff0ef          	jal	ra,3a48 <__udivsi3>
    3abc:	40a00533          	neg	a0,a0
    3ac0:	00028067          	jr	t0

00003ac4 <__modsi3>:
    3ac4:	00008293          	mv	t0,ra
    3ac8:	0005ca63          	bltz	a1,3adc <__modsi3+0x18>
    3acc:	00054c63          	bltz	a0,3ae4 <__modsi3+0x20>
    3ad0:	f79ff0ef          	jal	ra,3a48 <__udivsi3>
    3ad4:	00058513          	mv	a0,a1
    3ad8:	00028067          	jr	t0
    3adc:	40b005b3          	neg	a1,a1
    3ae0:	fe0558e3          	bgez	a0,3ad0 <__modsi3+0xc>
    3ae4:	40a00533          	neg	a0,a0
    3ae8:	f61ff0ef          	jal	ra,3a48 <__udivsi3>
    3aec:	40b00533          	neg	a0,a1
    3af0:	00028067          	jr	t0

00003af4 <__clzsi2>:
    3af4:	000107b7          	lui	a5,0x10
    3af8:	02f57a63          	bgeu	a0,a5,3b2c <__clzsi2+0x38>
    3afc:	0ff00793          	li	a5,255
    3b00:	00a7b7b3          	sltu	a5,a5,a0
    3b04:	00379793          	slli	a5,a5,0x3
    3b08:	00004737          	lui	a4,0x4
    3b0c:	02000693          	li	a3,32
    3b10:	40f686b3          	sub	a3,a3,a5
    3b14:	00f55533          	srl	a0,a0,a5
    3b18:	dd070793          	addi	a5,a4,-560 # 3dd0 <__clz_tab>
    3b1c:	00a78533          	add	a0,a5,a0
    3b20:	00054503          	lbu	a0,0(a0)
    3b24:	40a68533          	sub	a0,a3,a0
    3b28:	00008067          	ret
    3b2c:	01000737          	lui	a4,0x1000
    3b30:	01000793          	li	a5,16
    3b34:	fce56ae3          	bltu	a0,a4,3b08 <__clzsi2+0x14>
    3b38:	01800793          	li	a5,24
    3b3c:	fcdff06f          	j	3b08 <__clzsi2+0x14>

00003b40 <strlen>:
    3b40:	00357793          	andi	a5,a0,3
    3b44:	00050713          	mv	a4,a0
    3b48:	04079c63          	bnez	a5,3ba0 <strlen+0x60>
    3b4c:	7f7f86b7          	lui	a3,0x7f7f8
    3b50:	f7f68693          	addi	a3,a3,-129 # 7f7f7f7f <fast_osc_frequency+0x7f7f3f51>
    3b54:	fff00593          	li	a1,-1
    3b58:	00072603          	lw	a2,0(a4) # 1000000 <fast_osc_frequency+0xffbfd2>
    3b5c:	00470713          	addi	a4,a4,4
    3b60:	00d677b3          	and	a5,a2,a3
    3b64:	00d787b3          	add	a5,a5,a3
    3b68:	00c7e7b3          	or	a5,a5,a2
    3b6c:	00d7e7b3          	or	a5,a5,a3
    3b70:	feb784e3          	beq	a5,a1,3b58 <strlen+0x18>
    3b74:	ffc74683          	lbu	a3,-4(a4)
    3b78:	ffd74603          	lbu	a2,-3(a4)
    3b7c:	ffe74783          	lbu	a5,-2(a4)
    3b80:	40a70733          	sub	a4,a4,a0
    3b84:	04068063          	beqz	a3,3bc4 <strlen+0x84>
    3b88:	02060a63          	beqz	a2,3bbc <strlen+0x7c>
    3b8c:	00f03533          	snez	a0,a5
    3b90:	00e50533          	add	a0,a0,a4
    3b94:	ffe50513          	addi	a0,a0,-2
    3b98:	00008067          	ret
    3b9c:	fa0688e3          	beqz	a3,3b4c <strlen+0xc>
    3ba0:	00074783          	lbu	a5,0(a4)
    3ba4:	00170713          	addi	a4,a4,1
    3ba8:	00377693          	andi	a3,a4,3
    3bac:	fe0798e3          	bnez	a5,3b9c <strlen+0x5c>
    3bb0:	40a70733          	sub	a4,a4,a0
    3bb4:	fff70513          	addi	a0,a4,-1
    3bb8:	00008067          	ret
    3bbc:	ffd70513          	addi	a0,a4,-3
    3bc0:	00008067          	ret
    3bc4:	ffc70513          	addi	a0,a4,-4
    3bc8:	00008067          	ret
