
src/sw/blinker.elf:     ファイル形式 elf32-littleriscv


セクション .text の逆アセンブル:

00000000 <i2c_init>:
       0:	ff010113          	addi	sp,sp,-16
       4:	00812423          	sw	s0,8(sp)
       8:	00250413          	addi	s0,a0,2
       c:	00040513          	mv	a0,s0
      10:	00112623          	sw	ra,12(sp)
      14:	1f0000ef          	jal	ra,204 <get32>
      18:	ffe57593          	andi	a1,a0,-2
      1c:	0025e593          	ori	a1,a1,2
      20:	00040513          	mv	a0,s0
      24:	1d8000ef          	jal	ra,1fc <put32>
      28:	00040513          	mv	a0,s0
      2c:	1d8000ef          	jal	ra,204 <get32>
      30:	00356593          	ori	a1,a0,3
      34:	00040513          	mv	a0,s0
      38:	00812403          	lw	s0,8(sp)
      3c:	00c12083          	lw	ra,12(sp)
      40:	01010113          	addi	sp,sp,16
      44:	1b80006f          	j	1fc <put32>

00000048 <i2c_disable_isr>:
      48:	00008067          	ret

0000004c <i2c_start_transmit>:
      4c:	fe010113          	addi	sp,sp,-32
      50:	00812c23          	sw	s0,24(sp)
      54:	00912a23          	sw	s1,20(sp)
      58:	01212823          	sw	s2,16(sp)
      5c:	01312623          	sw	s3,12(sp)
      60:	00112e23          	sw	ra,28(sp)
      64:	00050913          	mv	s2,a0
      68:	00058493          	mv	s1,a1
      6c:	00060993          	mv	s3,a2
      70:	00450413          	addi	s0,a0,4
      74:	00040513          	mv	a0,s0
      78:	18c000ef          	jal	ra,204 <get32>
      7c:	00157513          	andi	a0,a0,1
      80:	fe050ae3          	beqz	a0,74 <i2c_start_transmit+0x28>
      84:	00149493          	slli	s1,s1,0x1
      88:	00100793          	li	a5,1
      8c:	20148593          	addi	a1,s1,513
      90:	00f98463          	beq	s3,a5,98 <i2c_start_transmit+0x4c>
      94:	20048593          	addi	a1,s1,512
      98:	01812403          	lw	s0,24(sp)
      9c:	01c12083          	lw	ra,28(sp)
      a0:	01412483          	lw	s1,20(sp)
      a4:	00c12983          	lw	s3,12(sp)
      a8:	00090513          	mv	a0,s2
      ac:	01012903          	lw	s2,16(sp)
      b0:	02010113          	addi	sp,sp,32
      b4:	1480006f          	j	1fc <put32>

000000b8 <i2c_start_receive>:
      b8:	00000513          	li	a0,0
      bc:	00008067          	ret

000000c0 <i2c_write>:
      c0:	fe010113          	addi	sp,sp,-32
      c4:	00812c23          	sw	s0,24(sp)
      c8:	00912a23          	sw	s1,20(sp)
      cc:	01212823          	sw	s2,16(sp)
      d0:	01312623          	sw	s3,12(sp)
      d4:	00112e23          	sw	ra,28(sp)
      d8:	00050493          	mv	s1,a0
      dc:	00058913          	mv	s2,a1
      e0:	00060993          	mv	s3,a2
      e4:	00450413          	addi	s0,a0,4
      e8:	00040513          	mv	a0,s0
      ec:	118000ef          	jal	ra,204 <get32>
      f0:	00157513          	andi	a0,a0,1
      f4:	fe050ae3          	beqz	a0,e8 <i2c_write+0x28>
      f8:	02098863          	beqz	s3,128 <i2c_write+0x68>
      fc:	00048513          	mv	a0,s1
     100:	10090593          	addi	a1,s2,256
     104:	0f8000ef          	jal	ra,1fc <put32>
     108:	01c12083          	lw	ra,28(sp)
     10c:	01812403          	lw	s0,24(sp)
     110:	01412483          	lw	s1,20(sp)
     114:	01012903          	lw	s2,16(sp)
     118:	00c12983          	lw	s3,12(sp)
     11c:	00000513          	li	a0,0
     120:	02010113          	addi	sp,sp,32
     124:	00008067          	ret
     128:	00048513          	mv	a0,s1
     12c:	00090593          	mv	a1,s2
     130:	0cc000ef          	jal	ra,1fc <put32>
     134:	01c12083          	lw	ra,28(sp)
     138:	01812403          	lw	s0,24(sp)
     13c:	01412483          	lw	s1,20(sp)
     140:	01012903          	lw	s2,16(sp)
     144:	00c12983          	lw	s3,12(sp)
     148:	00000513          	li	a0,0
     14c:	02010113          	addi	sp,sp,32
     150:	00008067          	ret

00000154 <i2c_read>:
     154:	fe010113          	addi	sp,sp,-32
     158:	00812c23          	sw	s0,24(sp)
     15c:	00912a23          	sw	s1,20(sp)
     160:	01212823          	sw	s2,16(sp)
     164:	01312623          	sw	s3,12(sp)
     168:	00112e23          	sw	ra,28(sp)
     16c:	00050493          	mv	s1,a0
     170:	00058913          	mv	s2,a1
     174:	00150993          	addi	s3,a0,1
     178:	00450413          	addi	s0,a0,4
     17c:	00040513          	mv	a0,s0
     180:	084000ef          	jal	ra,204 <get32>
     184:	00157513          	andi	a0,a0,1
     188:	fe050ae3          	beqz	a0,17c <i2c_read+0x28>
     18c:	04090063          	beqz	s2,1cc <i2c_read+0x78>
     190:	10000593          	li	a1,256
     194:	00048513          	mv	a0,s1
     198:	064000ef          	jal	ra,1fc <put32>
     19c:	00040513          	mv	a0,s0
     1a0:	064000ef          	jal	ra,204 <get32>
     1a4:	00257513          	andi	a0,a0,2
     1a8:	fe050ae3          	beqz	a0,19c <i2c_read+0x48>
     1ac:	01812403          	lw	s0,24(sp)
     1b0:	01c12083          	lw	ra,28(sp)
     1b4:	01412483          	lw	s1,20(sp)
     1b8:	01012903          	lw	s2,16(sp)
     1bc:	00098513          	mv	a0,s3
     1c0:	00c12983          	lw	s3,12(sp)
     1c4:	02010113          	addi	sp,sp,32
     1c8:	03c0006f          	j	204 <get32>
     1cc:	00000593          	li	a1,0
     1d0:	00048513          	mv	a0,s1
     1d4:	028000ef          	jal	ra,1fc <put32>
     1d8:	fc5ff06f          	j	19c <i2c_read+0x48>

000001dc <_start>:
     1dc:	01800093          	li	ra,24
     1e0:	30509073          	csrw	mtvec,ra
     1e4:	00008137          	lui	sp,0x8
     1e8:	581000ef          	jal	ra,f68 <main>
     1ec:	0000006f          	j	1ec <_start+0x10>

000001f0 <dummy>:
     1f0:	00008067          	ret

000001f4 <_expr>:
     1f4:	36d000ef          	jal	ra,d60 <__expr>
     1f8:	0000006f          	j	1f8 <_expr+0x4>

000001fc <put32>:
     1fc:	00b52023          	sw	a1,0(a0)
     200:	00008067          	ret

00000204 <get32>:
     204:	00052503          	lw	a0,0(a0)
     208:	00008067          	ret

0000020c <get_timel>:
     20c:	c0102573          	rdtime	a0
     210:	00008067          	ret

00000214 <get_timeh>:
     214:	c8102573          	rdtimeh	a0
     218:	00008067          	ret

0000021c <xvfprintf>:
     21c:	f8010113          	addi	sp,sp,-128 # 7f80 <xfunc_output+0x3f7c>
     220:	06112e23          	sw	ra,124(sp)
     224:	06812c23          	sw	s0,120(sp)
     228:	06912a23          	sw	s1,116(sp)
     22c:	07212823          	sw	s2,112(sp)
     230:	07312623          	sw	s3,108(sp)
     234:	07412423          	sw	s4,104(sp)
     238:	07512223          	sw	s5,100(sp)
     23c:	07612023          	sw	s6,96(sp)
     240:	05712e23          	sw	s7,92(sp)
     244:	05812c23          	sw	s8,88(sp)
     248:	05912a23          	sw	s9,84(sp)
     24c:	05a12823          	sw	s10,80(sp)
     250:	05b12623          	sw	s11,76(sp)
     254:	0005c483          	lbu	s1,0(a1)
     258:	00c12a23          	sw	a2,20(sp)
     25c:	0c048c63          	beqz	s1,334 <xvfprintf+0x118>
     260:	000027b7          	lui	a5,0x2
     264:	cc878793          	addi	a5,a5,-824 # 1cc8 <strlen+0x8c>
     268:	00058913          	mv	s2,a1
     26c:	00050413          	mv	s0,a0
     270:	00158b93          	addi	s7,a1,1
     274:	00004a37          	lui	s4,0x4
     278:	00f12e23          	sw	a5,28(sp)
     27c:	02010993          	addi	s3,sp,32
     280:	02500793          	li	a5,37
     284:	3ef49e63          	bne	s1,a5,680 <xvfprintf+0x464>
     288:	00194b83          	lbu	s7,1(s2)
     28c:	03000793          	li	a5,48
     290:	48fb8063          	beq	s7,a5,710 <xvfprintf+0x4f4>
     294:	02d00793          	li	a5,45
     298:	4efb8463          	beq	s7,a5,780 <xvfprintf+0x564>
     29c:	00290913          	addi	s2,s2,2
     2a0:	02000c93          	li	s9,32
     2a4:	00012623          	sw	zero,12(sp)
     2a8:	02a00793          	li	a5,42
     2ac:	3efb9863          	bne	s7,a5,69c <xvfprintf+0x480>
     2b0:	01412783          	lw	a5,20(sp)
     2b4:	0007a483          	lw	s1,0(a5)
     2b8:	00478b13          	addi	s6,a5,4
     2bc:	0004d863          	bgez	s1,2cc <xvfprintf+0xb0>
     2c0:	00200793          	li	a5,2
     2c4:	409004b3          	neg	s1,s1
     2c8:	00f12623          	sw	a5,12(sp)
     2cc:	00094b83          	lbu	s7,0(s2)
     2d0:	01612a23          	sw	s6,20(sp)
     2d4:	00190913          	addi	s2,s2,1
     2d8:	02e00793          	li	a5,46
     2dc:	fff00d93          	li	s11,-1
     2e0:	40fb8463          	beq	s7,a5,6e8 <xvfprintf+0x4cc>
     2e4:	06c00793          	li	a5,108
     2e8:	08fb8463          	beq	s7,a5,370 <xvfprintf+0x154>
     2ec:	040b8463          	beqz	s7,334 <xvfprintf+0x118>
     2f0:	fa8b8713          	addi	a4,s7,-88
     2f4:	0ff77713          	andi	a4,a4,255
     2f8:	02000793          	li	a5,32
     2fc:	00e7ec63          	bltu	a5,a4,314 <xvfprintf+0xf8>
     300:	01c12783          	lw	a5,28(sp)
     304:	00271713          	slli	a4,a4,0x2
     308:	00f70733          	add	a4,a4,a5
     30c:	00072783          	lw	a5,0(a4)
     310:	00078067          	jr	a5
     314:	00a00793          	li	a5,10
     318:	62fb8e63          	beq	s7,a5,954 <xvfprintf+0x738>
     31c:	60040463          	beqz	s0,924 <xvfprintf+0x708>
     320:	000b8513          	mv	a0,s7
     324:	000400e7          	jalr	s0
     328:	00094483          	lbu	s1,0(s2)
     32c:	00190b93          	addi	s7,s2,1
     330:	f40498e3          	bnez	s1,280 <xvfprintf+0x64>
     334:	07c12083          	lw	ra,124(sp)
     338:	07812403          	lw	s0,120(sp)
     33c:	07412483          	lw	s1,116(sp)
     340:	07012903          	lw	s2,112(sp)
     344:	06c12983          	lw	s3,108(sp)
     348:	06812a03          	lw	s4,104(sp)
     34c:	06412a83          	lw	s5,100(sp)
     350:	06012b03          	lw	s6,96(sp)
     354:	05c12b83          	lw	s7,92(sp)
     358:	05812c03          	lw	s8,88(sp)
     35c:	05412c83          	lw	s9,84(sp)
     360:	05012d03          	lw	s10,80(sp)
     364:	04c12d83          	lw	s11,76(sp)
     368:	08010113          	addi	sp,sp,128
     36c:	00008067          	ret
     370:	00094b83          	lbu	s7,0(s2)
     374:	4afb8863          	beq	s7,a5,824 <xvfprintf+0x608>
     378:	00c12783          	lw	a5,12(sp)
     37c:	00190913          	addi	s2,s2,1
     380:	0047e793          	ori	a5,a5,4
     384:	00f12623          	sw	a5,12(sp)
     388:	f65ff06f          	j	2ec <xvfprintf+0xd0>
     38c:	00a00d13          	li	s10,10
     390:	00012423          	sw	zero,8(sp)
     394:	00c12783          	lw	a5,12(sp)
     398:	0087f793          	andi	a5,a5,8
     39c:	3a078a63          	beqz	a5,750 <xvfprintf+0x534>
     3a0:	01412783          	lw	a5,20(sp)
     3a4:	00778b13          	addi	s6,a5,7
     3a8:	ff8b7b13          	andi	s6,s6,-8
     3ac:	008b0713          	addi	a4,s6,8
     3b0:	06400793          	li	a5,100
     3b4:	00e12a23          	sw	a4,20(sp)
     3b8:	000b2883          	lw	a7,0(s6)
     3bc:	004b2803          	lw	a6,4(s6)
     3c0:	42fb8c63          	beq	s7,a5,7f8 <xvfprintf+0x5dc>
     3c4:	00c12783          	lw	a5,12(sp)
     3c8:	0017f793          	andi	a5,a5,1
     3cc:	00f12c23          	sw	a5,24(sp)
     3d0:	07800793          	li	a5,120
     3d4:	00088c13          	mv	s8,a7
     3d8:	00080a93          	mv	s5,a6
     3dc:	00700d93          	li	s11,7
     3e0:	00fb9463          	bne	s7,a5,3e8 <xvfprintf+0x1cc>
     3e4:	02700d93          	li	s11,39
     3e8:	0ffdf793          	andi	a5,s11,255
     3ec:	00f12823          	sw	a5,16(sp)
     3f0:	00000b13          	li	s6,0
     3f4:	0100006f          	j	404 <xvfprintf+0x1e8>
     3f8:	02000793          	li	a5,32
     3fc:	38fd8e63          	beq	s11,a5,798 <xvfprintf+0x57c>
     400:	000d8b13          	mv	s6,s11
     404:	000d0613          	mv	a2,s10
     408:	00000693          	li	a3,0
     40c:	000c0513          	mv	a0,s8
     410:	000a8593          	mv	a1,s5
     414:	1d0010ef          	jal	ra,15e4 <__umoddi3>
     418:	00050b93          	mv	s7,a0
     41c:	000a8593          	mv	a1,s5
     420:	000c0513          	mv	a0,s8
     424:	00000693          	li	a3,0
     428:	000d0613          	mv	a2,s10
     42c:	3e1000ef          	jal	ra,100c <__udivdi3>
     430:	0ffbfb93          	andi	s7,s7,255
     434:	00900793          	li	a5,9
     438:	000c0e13          	mv	t3,s8
     43c:	000a8693          	mv	a3,s5
     440:	00050c13          	mv	s8,a0
     444:	00058a93          	mv	s5,a1
     448:	0177f863          	bgeu	a5,s7,458 <xvfprintf+0x23c>
     44c:	01012783          	lw	a5,16(sp)
     450:	017787b3          	add	a5,a5,s7
     454:	0ff7fb93          	andi	s7,a5,255
     458:	001b0d93          	addi	s11,s6,1
     45c:	030b8793          	addi	a5,s7,48
     460:	01b985b3          	add	a1,s3,s11
     464:	fef58fa3          	sb	a5,-1(a1)
     468:	00812783          	lw	a5,8(sp)
     46c:	f8d796e3          	bne	a5,a3,3f8 <xvfprintf+0x1dc>
     470:	f9ae74e3          	bgeu	t3,s10,3f8 <xvfprintf+0x1dc>
     474:	01812783          	lw	a5,24(sp)
     478:	00078c63          	beqz	a5,490 <xvfprintf+0x274>
     47c:	04010793          	addi	a5,sp,64
     480:	01b78733          	add	a4,a5,s11
     484:	02d00793          	li	a5,45
     488:	fef70023          	sb	a5,-32(a4)
     48c:	002b0d93          	addi	s11,s6,2
     490:	00c12783          	lw	a5,12(sp)
     494:	0027fd13          	andi	s10,a5,2
     498:	4a0d1263          	bnez	s10,93c <xvfprintf+0x720>
     49c:	000d8d13          	mv	s10,s11
     4a0:	009dfc63          	bgeu	s11,s1,4b8 <xvfprintf+0x29c>
     4a4:	1a040a63          	beqz	s0,658 <xvfprintf+0x43c>
     4a8:	000c8513          	mv	a0,s9
     4ac:	000400e7          	jalr	s0
     4b0:	001d0d13          	addi	s10,s10,1
     4b4:	ffa498e3          	bne	s1,s10,4a4 <xvfprintf+0x288>
     4b8:	01b98bb3          	add	s7,s3,s11
     4bc:	00a00c13          	li	s8,10
     4c0:	00d00c93          	li	s9,13
     4c4:	0140006f          	j	4d8 <xvfprintf+0x2bc>
     4c8:	000d8513          	mv	a0,s11
     4cc:	000400e7          	jalr	s0
     4d0:	fffb8b93          	addi	s7,s7,-1
     4d4:	03798663          	beq	s3,s7,500 <xvfprintf+0x2e4>
     4d8:	fffbcd83          	lbu	s11,-1(s7)
     4dc:	198d8a63          	beq	s11,s8,670 <xvfprintf+0x454>
     4e0:	fe0414e3          	bnez	s0,4c8 <xvfprintf+0x2ac>
     4e4:	000a2783          	lw	a5,0(s4) # 4000 <strptr>
     4e8:	fe0784e3          	beqz	a5,4d0 <xvfprintf+0x2b4>
     4ec:	00178713          	addi	a4,a5,1
     4f0:	00ea2023          	sw	a4,0(s4)
     4f4:	01b78023          	sb	s11,0(a5)
     4f8:	fffb8b93          	addi	s7,s7,-1
     4fc:	fd799ee3          	bne	s3,s7,4d8 <xvfprintf+0x2bc>
     500:	001d0b93          	addi	s7,s10,1
     504:	e29d72e3          	bgeu	s10,s1,328 <xvfprintf+0x10c>
     508:	00040e63          	beqz	s0,524 <xvfprintf+0x308>
     50c:	02000513          	li	a0,32
     510:	000400e7          	jalr	s0
     514:	001b8793          	addi	a5,s7,1
     518:	e17488e3          	beq	s1,s7,328 <xvfprintf+0x10c>
     51c:	00078b93          	mv	s7,a5
     520:	fe0416e3          	bnez	s0,50c <xvfprintf+0x2f0>
     524:	000a2783          	lw	a5,0(s4)
     528:	fe0786e3          	beqz	a5,514 <xvfprintf+0x2f8>
     52c:	00178713          	addi	a4,a5,1
     530:	00ea2023          	sw	a4,0(s4)
     534:	02000713          	li	a4,32
     538:	00e78023          	sb	a4,0(a5)
     53c:	fd9ff06f          	j	514 <xvfprintf+0x2f8>
     540:	01412683          	lw	a3,20(sp)
     544:	00a00713          	li	a4,10
     548:	0006a783          	lw	a5,0(a3)
     54c:	00468b93          	addi	s7,a3,4
     550:	0ff7f493          	andi	s1,a5,255
     554:	3ee48863          	beq	s1,a4,944 <xvfprintf+0x728>
     558:	3a040663          	beqz	s0,904 <xvfprintf+0x6e8>
     55c:	00048513          	mv	a0,s1
     560:	000400e7          	jalr	s0
     564:	01712a23          	sw	s7,20(sp)
     568:	dc1ff06f          	j	328 <xvfprintf+0x10c>
     56c:	01412783          	lw	a5,20(sp)
     570:	0007ab83          	lw	s7,0(a5)
     574:	00478793          	addi	a5,a5,4
     578:	00f12423          	sw	a5,8(sp)
     57c:	000b8513          	mv	a0,s7
     580:	6bc010ef          	jal	ra,1c3c <strlen>
     584:	00c12783          	lw	a5,12(sp)
     588:	00050b13          	mv	s6,a0
     58c:	0027fd13          	andi	s10,a5,2
     590:	340d1a63          	bnez	s10,8e4 <xvfprintf+0x6c8>
     594:	00957c63          	bgeu	a0,s1,5ac <xvfprintf+0x390>
     598:	18040663          	beqz	s0,724 <xvfprintf+0x508>
     59c:	000c8513          	mv	a0,s9
     5a0:	000400e7          	jalr	s0
     5a4:	001b0b13          	addi	s6,s6,1
     5a8:	ff6498e3          	bne	s1,s6,598 <xvfprintf+0x37c>
     5ac:	000bcd03          	lbu	s10,0(s7)
     5b0:	080d0e63          	beqz	s10,64c <xvfprintf+0x430>
     5b4:	040d8a63          	beqz	s11,608 <xvfprintf+0x3ec>
     5b8:	000b8a93          	mv	s5,s7
     5bc:	00a00c13          	li	s8,10
     5c0:	00d00c93          	li	s9,13
     5c4:	01c0006f          	j	5e0 <xvfprintf+0x3c4>
     5c8:	000d0513          	mv	a0,s10
     5cc:	000400e7          	jalr	s0
     5d0:	000acd03          	lbu	s10,0(s5)
     5d4:	020d0a63          	beqz	s10,608 <xvfprintf+0x3ec>
     5d8:	41ba86b3          	sub	a3,s5,s11
     5dc:	03768663          	beq	a3,s7,608 <xvfprintf+0x3ec>
     5e0:	001a8a93          	addi	s5,s5,1
     5e4:	2f8d0863          	beq	s10,s8,8d4 <xvfprintf+0x6b8>
     5e8:	fe0410e3          	bnez	s0,5c8 <xvfprintf+0x3ac>
     5ec:	000a2683          	lw	a3,0(s4)
     5f0:	fe0680e3          	beqz	a3,5d0 <xvfprintf+0x3b4>
     5f4:	01a68023          	sb	s10,0(a3)
     5f8:	000acd03          	lbu	s10,0(s5)
     5fc:	00168613          	addi	a2,a3,1
     600:	00ca2023          	sw	a2,0(s4)
     604:	fc0d1ae3          	bnez	s10,5d8 <xvfprintf+0x3bc>
     608:	001b0b93          	addi	s7,s6,1
     60c:	049b7063          	bgeu	s6,s1,64c <xvfprintf+0x430>
     610:	00040e63          	beqz	s0,62c <xvfprintf+0x410>
     614:	02000513          	li	a0,32
     618:	000400e7          	jalr	s0
     61c:	001b8793          	addi	a5,s7,1
     620:	03748663          	beq	s1,s7,64c <xvfprintf+0x430>
     624:	00078b93          	mv	s7,a5
     628:	fe0416e3          	bnez	s0,614 <xvfprintf+0x3f8>
     62c:	000a2783          	lw	a5,0(s4)
     630:	fe0786e3          	beqz	a5,61c <xvfprintf+0x400>
     634:	00178713          	addi	a4,a5,1
     638:	00ea2023          	sw	a4,0(s4)
     63c:	02000713          	li	a4,32
     640:	00e78023          	sb	a4,0(a5)
     644:	001b8793          	addi	a5,s7,1
     648:	fd749ee3          	bne	s1,s7,624 <xvfprintf+0x408>
     64c:	00812783          	lw	a5,8(sp)
     650:	00f12a23          	sw	a5,20(sp)
     654:	cd5ff06f          	j	328 <xvfprintf+0x10c>
     658:	000a2783          	lw	a5,0(s4)
     65c:	e4078ae3          	beqz	a5,4b0 <xvfprintf+0x294>
     660:	00178693          	addi	a3,a5,1
     664:	00da2023          	sw	a3,0(s4)
     668:	01978023          	sb	s9,0(a5)
     66c:	e45ff06f          	j	4b0 <xvfprintf+0x294>
     670:	0c040663          	beqz	s0,73c <xvfprintf+0x520>
     674:	00d00513          	li	a0,13
     678:	000400e7          	jalr	s0
     67c:	e4dff06f          	j	4c8 <xvfprintf+0x2ac>
     680:	00a00793          	li	a5,10
     684:	1cf48c63          	beq	s1,a5,85c <xvfprintf+0x640>
     688:	1a040a63          	beqz	s0,83c <xvfprintf+0x620>
     68c:	00048513          	mv	a0,s1
     690:	000400e7          	jalr	s0
     694:	000b8913          	mv	s2,s7
     698:	c91ff06f          	j	328 <xvfprintf+0x10c>
     69c:	fd0b8793          	addi	a5,s7,-48
     6a0:	0ff7f793          	andi	a5,a5,255
     6a4:	00900693          	li	a3,9
     6a8:	00000493          	li	s1,0
     6ac:	00900713          	li	a4,9
     6b0:	c2f6e4e3          	bltu	a3,a5,2d8 <xvfprintf+0xbc>
     6b4:	00249793          	slli	a5,s1,0x2
     6b8:	009784b3          	add	s1,a5,s1
     6bc:	00149493          	slli	s1,s1,0x1
     6c0:	00190913          	addi	s2,s2,1
     6c4:	017484b3          	add	s1,s1,s7
     6c8:	fff94b83          	lbu	s7,-1(s2)
     6cc:	fd048493          	addi	s1,s1,-48
     6d0:	fd0b8793          	addi	a5,s7,-48
     6d4:	0ff7f793          	andi	a5,a5,255
     6d8:	fcf77ee3          	bgeu	a4,a5,6b4 <xvfprintf+0x498>
     6dc:	02e00793          	li	a5,46
     6e0:	fff00d93          	li	s11,-1
     6e4:	c0fb90e3          	bne	s7,a5,2e4 <xvfprintf+0xc8>
     6e8:	00094b83          	lbu	s7,0(s2)
     6ec:	02a00793          	li	a5,42
     6f0:	0afb9863          	bne	s7,a5,7a0 <xvfprintf+0x584>
     6f4:	01412783          	lw	a5,20(sp)
     6f8:	00194b83          	lbu	s7,1(s2)
     6fc:	00290913          	addi	s2,s2,2
     700:	0007ad83          	lw	s11,0(a5)
     704:	00478793          	addi	a5,a5,4
     708:	00f12a23          	sw	a5,20(sp)
     70c:	bd9ff06f          	j	2e4 <xvfprintf+0xc8>
     710:	00294b83          	lbu	s7,2(s2)
     714:	03000c93          	li	s9,48
     718:	00390913          	addi	s2,s2,3
     71c:	00012623          	sw	zero,12(sp)
     720:	b89ff06f          	j	2a8 <xvfprintf+0x8c>
     724:	000a2783          	lw	a5,0(s4)
     728:	e6078ee3          	beqz	a5,5a4 <xvfprintf+0x388>
     72c:	00178693          	addi	a3,a5,1
     730:	00da2023          	sw	a3,0(s4)
     734:	01978023          	sb	s9,0(a5)
     738:	e6dff06f          	j	5a4 <xvfprintf+0x388>
     73c:	000a2703          	lw	a4,0(s4)
     740:	d80708e3          	beqz	a4,4d0 <xvfprintf+0x2b4>
     744:	00170793          	addi	a5,a4,1
     748:	01970023          	sb	s9,0(a4)
     74c:	da1ff06f          	j	4ec <xvfprintf+0x2d0>
     750:	01412703          	lw	a4,20(sp)
     754:	06400793          	li	a5,100
     758:	00470713          	addi	a4,a4,4
     75c:	08fb8663          	beq	s7,a5,7e8 <xvfprintf+0x5cc>
     760:	01412783          	lw	a5,20(sp)
     764:	00000813          	li	a6,0
     768:	0007a883          	lw	a7,0(a5)
     76c:	00c12783          	lw	a5,12(sp)
     770:	00e12a23          	sw	a4,20(sp)
     774:	0017f793          	andi	a5,a5,1
     778:	00f12c23          	sw	a5,24(sp)
     77c:	c55ff06f          	j	3d0 <xvfprintf+0x1b4>
     780:	00200793          	li	a5,2
     784:	00294b83          	lbu	s7,2(s2)
     788:	02000c93          	li	s9,32
     78c:	00390913          	addi	s2,s2,3
     790:	00f12623          	sw	a5,12(sp)
     794:	b15ff06f          	j	2a8 <xvfprintf+0x8c>
     798:	01f00b13          	li	s6,31
     79c:	cd9ff06f          	j	474 <xvfprintf+0x258>
     7a0:	fd0b8793          	addi	a5,s7,-48
     7a4:	0ff7f793          	andi	a5,a5,255
     7a8:	00900693          	li	a3,9
     7ac:	00190913          	addi	s2,s2,1
     7b0:	00000d93          	li	s11,0
     7b4:	00900713          	li	a4,9
     7b8:	b2f6e6e3          	bltu	a3,a5,2e4 <xvfprintf+0xc8>
     7bc:	002d9793          	slli	a5,s11,0x2
     7c0:	01b787b3          	add	a5,a5,s11
     7c4:	00179793          	slli	a5,a5,0x1
     7c8:	00190913          	addi	s2,s2,1
     7cc:	017787b3          	add	a5,a5,s7
     7d0:	fff94b83          	lbu	s7,-1(s2)
     7d4:	fd078d93          	addi	s11,a5,-48
     7d8:	fd0b8793          	addi	a5,s7,-48
     7dc:	0ff7f793          	andi	a5,a5,255
     7e0:	fcf77ee3          	bgeu	a4,a5,7bc <xvfprintf+0x5a0>
     7e4:	b01ff06f          	j	2e4 <xvfprintf+0xc8>
     7e8:	01412783          	lw	a5,20(sp)
     7ec:	0007a883          	lw	a7,0(a5)
     7f0:	00e12a23          	sw	a4,20(sp)
     7f4:	41f8d813          	srai	a6,a7,0x1f
     7f8:	bc0856e3          	bgez	a6,3c4 <xvfprintf+0x1a8>
     7fc:	011037b3          	snez	a5,a7
     800:	41000833          	neg	a6,a6
     804:	40f80833          	sub	a6,a6,a5
     808:	00c12783          	lw	a5,12(sp)
     80c:	411008b3          	neg	a7,a7
     810:	0017e793          	ori	a5,a5,1
     814:	00f12623          	sw	a5,12(sp)
     818:	00100793          	li	a5,1
     81c:	00f12c23          	sw	a5,24(sp)
     820:	bb1ff06f          	j	3d0 <xvfprintf+0x1b4>
     824:	00c12783          	lw	a5,12(sp)
     828:	00194b83          	lbu	s7,1(s2)
     82c:	00290913          	addi	s2,s2,2
     830:	00c7e793          	ori	a5,a5,12
     834:	00f12623          	sw	a5,12(sp)
     838:	ab5ff06f          	j	2ec <xvfprintf+0xd0>
     83c:	000a2783          	lw	a5,0(s4)
     840:	000b8913          	mv	s2,s7
     844:	ae0782e3          	beqz	a5,328 <xvfprintf+0x10c>
     848:	00178713          	addi	a4,a5,1
     84c:	00ea2023          	sw	a4,0(s4)
     850:	00978023          	sb	s1,0(a5)
     854:	000b8913          	mv	s2,s7
     858:	ad1ff06f          	j	328 <xvfprintf+0x10c>
     85c:	04040e63          	beqz	s0,8b8 <xvfprintf+0x69c>
     860:	00d00513          	li	a0,13
     864:	000400e7          	jalr	s0
     868:	e25ff06f          	j	68c <xvfprintf+0x470>
     86c:	01000d13          	li	s10,16
     870:	00012423          	sw	zero,8(sp)
     874:	b21ff06f          	j	394 <xvfprintf+0x178>
     878:	00800d13          	li	s10,8
     87c:	00012423          	sw	zero,8(sp)
     880:	00c12783          	lw	a5,12(sp)
     884:	0087f793          	andi	a5,a5,8
     888:	ec0784e3          	beqz	a5,750 <xvfprintf+0x534>
     88c:	01412783          	lw	a5,20(sp)
     890:	00778b13          	addi	s6,a5,7
     894:	ff8b7b13          	andi	s6,s6,-8
     898:	008b0793          	addi	a5,s6,8
     89c:	000b2883          	lw	a7,0(s6)
     8a0:	004b2803          	lw	a6,4(s6)
     8a4:	00f12a23          	sw	a5,20(sp)
     8a8:	b1dff06f          	j	3c4 <xvfprintf+0x1a8>
     8ac:	00200d13          	li	s10,2
     8b0:	00012423          	sw	zero,8(sp)
     8b4:	fcdff06f          	j	880 <xvfprintf+0x664>
     8b8:	000a2703          	lw	a4,0(s4)
     8bc:	000b8913          	mv	s2,s7
     8c0:	a60704e3          	beqz	a4,328 <xvfprintf+0x10c>
     8c4:	00d00693          	li	a3,13
     8c8:	00170793          	addi	a5,a4,1
     8cc:	00d70023          	sb	a3,0(a4)
     8d0:	f79ff06f          	j	848 <xvfprintf+0x62c>
     8d4:	00040e63          	beqz	s0,8f0 <xvfprintf+0x6d4>
     8d8:	00d00513          	li	a0,13
     8dc:	000400e7          	jalr	s0
     8e0:	ce9ff06f          	j	5c8 <xvfprintf+0x3ac>
     8e4:	000bcd03          	lbu	s10,0(s7)
     8e8:	cc0d16e3          	bnez	s10,5b4 <xvfprintf+0x398>
     8ec:	d1dff06f          	j	608 <xvfprintf+0x3ec>
     8f0:	000a2603          	lw	a2,0(s4)
     8f4:	cc060ee3          	beqz	a2,5d0 <xvfprintf+0x3b4>
     8f8:	00160693          	addi	a3,a2,1
     8fc:	01960023          	sb	s9,0(a2)
     900:	cf5ff06f          	j	5f4 <xvfprintf+0x3d8>
     904:	000a2703          	lw	a4,0(s4)
     908:	01712a23          	sw	s7,20(sp)
     90c:	a0070ee3          	beqz	a4,328 <xvfprintf+0x10c>
     910:	00170693          	addi	a3,a4,1
     914:	00da2023          	sw	a3,0(s4)
     918:	00f70023          	sb	a5,0(a4)
     91c:	01712a23          	sw	s7,20(sp)
     920:	a09ff06f          	j	328 <xvfprintf+0x10c>
     924:	000a2783          	lw	a5,0(s4)
     928:	a00780e3          	beqz	a5,328 <xvfprintf+0x10c>
     92c:	00178713          	addi	a4,a5,1
     930:	00ea2023          	sw	a4,0(s4)
     934:	01778023          	sb	s7,0(a5)
     938:	9f1ff06f          	j	328 <xvfprintf+0x10c>
     93c:	000d8d13          	mv	s10,s11
     940:	b79ff06f          	j	4b8 <xvfprintf+0x29c>
     944:	02040063          	beqz	s0,964 <xvfprintf+0x748>
     948:	00d00513          	li	a0,13
     94c:	000400e7          	jalr	s0
     950:	c0dff06f          	j	55c <xvfprintf+0x340>
     954:	02040663          	beqz	s0,980 <xvfprintf+0x764>
     958:	00d00513          	li	a0,13
     95c:	000400e7          	jalr	s0
     960:	9c1ff06f          	j	320 <xvfprintf+0x104>
     964:	000a2683          	lw	a3,0(s4)
     968:	01712a23          	sw	s7,20(sp)
     96c:	9a068ee3          	beqz	a3,328 <xvfprintf+0x10c>
     970:	00d00613          	li	a2,13
     974:	00168713          	addi	a4,a3,1
     978:	00c68023          	sb	a2,0(a3)
     97c:	f95ff06f          	j	910 <xvfprintf+0x6f4>
     980:	000a2703          	lw	a4,0(s4)
     984:	9a0702e3          	beqz	a4,328 <xvfprintf+0x10c>
     988:	00d00693          	li	a3,13
     98c:	00170793          	addi	a5,a4,1
     990:	00d70023          	sb	a3,0(a4)
     994:	f99ff06f          	j	92c <xvfprintf+0x710>

00000998 <xputc>:
     998:	ff010113          	addi	sp,sp,-16
     99c:	00812423          	sw	s0,8(sp)
     9a0:	00912223          	sw	s1,4(sp)
     9a4:	00004737          	lui	a4,0x4
     9a8:	00112623          	sw	ra,12(sp)
     9ac:	00a00793          	li	a5,10
     9b0:	00472483          	lw	s1,4(a4) # 4004 <xfunc_output>
     9b4:	00050413          	mv	s0,a0
     9b8:	04f50863          	beq	a0,a5,a08 <xputc+0x70>
     9bc:	02048063          	beqz	s1,9dc <xputc+0x44>
     9c0:	00040513          	mv	a0,s0
     9c4:	00812403          	lw	s0,8(sp)
     9c8:	00c12083          	lw	ra,12(sp)
     9cc:	00048793          	mv	a5,s1
     9d0:	00412483          	lw	s1,4(sp)
     9d4:	01010113          	addi	sp,sp,16
     9d8:	00078067          	jr	a5
     9dc:	00004737          	lui	a4,0x4
     9e0:	00072783          	lw	a5,0(a4) # 4000 <strptr>
     9e4:	00078863          	beqz	a5,9f4 <xputc+0x5c>
     9e8:	00178693          	addi	a3,a5,1
     9ec:	00d72023          	sw	a3,0(a4)
     9f0:	00878023          	sb	s0,0(a5)
     9f4:	00c12083          	lw	ra,12(sp)
     9f8:	00812403          	lw	s0,8(sp)
     9fc:	00412483          	lw	s1,4(sp)
     a00:	01010113          	addi	sp,sp,16
     a04:	00008067          	ret
     a08:	02048463          	beqz	s1,a30 <xputc+0x98>
     a0c:	00d00513          	li	a0,13
     a10:	000480e7          	jalr	s1
     a14:	00040513          	mv	a0,s0
     a18:	00812403          	lw	s0,8(sp)
     a1c:	00c12083          	lw	ra,12(sp)
     a20:	00048793          	mv	a5,s1
     a24:	00412483          	lw	s1,4(sp)
     a28:	01010113          	addi	sp,sp,16
     a2c:	00078067          	jr	a5
     a30:	00004737          	lui	a4,0x4
     a34:	00072683          	lw	a3,0(a4) # 4000 <strptr>
     a38:	fa068ee3          	beqz	a3,9f4 <xputc+0x5c>
     a3c:	00d00613          	li	a2,13
     a40:	00168793          	addi	a5,a3,1
     a44:	00c68023          	sb	a2,0(a3)
     a48:	fa1ff06f          	j	9e8 <xputc+0x50>

00000a4c <xfputc>:
     a4c:	fe010113          	addi	sp,sp,-32
     a50:	00912c23          	sw	s1,24(sp)
     a54:	00112e23          	sw	ra,28(sp)
     a58:	00a00793          	li	a5,10
     a5c:	00050493          	mv	s1,a0
     a60:	04f58463          	beq	a1,a5,aa8 <xfputc+0x5c>
     a64:	00050e63          	beqz	a0,a80 <xfputc+0x34>
     a68:	01c12083          	lw	ra,28(sp)
     a6c:	00048793          	mv	a5,s1
     a70:	01812483          	lw	s1,24(sp)
     a74:	00058513          	mv	a0,a1
     a78:	02010113          	addi	sp,sp,32
     a7c:	00078067          	jr	a5
     a80:	00004737          	lui	a4,0x4
     a84:	00072783          	lw	a5,0(a4) # 4000 <strptr>
     a88:	00078863          	beqz	a5,a98 <xfputc+0x4c>
     a8c:	00178693          	addi	a3,a5,1
     a90:	00d72023          	sw	a3,0(a4)
     a94:	00b78023          	sb	a1,0(a5)
     a98:	01c12083          	lw	ra,28(sp)
     a9c:	01812483          	lw	s1,24(sp)
     aa0:	02010113          	addi	sp,sp,32
     aa4:	00008067          	ret
     aa8:	02050663          	beqz	a0,ad4 <xfputc+0x88>
     aac:	00d00513          	li	a0,13
     ab0:	00b12623          	sw	a1,12(sp)
     ab4:	000480e7          	jalr	s1
     ab8:	00c12583          	lw	a1,12(sp)
     abc:	01c12083          	lw	ra,28(sp)
     ac0:	00048793          	mv	a5,s1
     ac4:	01812483          	lw	s1,24(sp)
     ac8:	00058513          	mv	a0,a1
     acc:	02010113          	addi	sp,sp,32
     ad0:	00078067          	jr	a5
     ad4:	00004737          	lui	a4,0x4
     ad8:	00072683          	lw	a3,0(a4) # 4000 <strptr>
     adc:	fa068ee3          	beqz	a3,a98 <xfputc+0x4c>
     ae0:	00d00613          	li	a2,13
     ae4:	00168793          	addi	a5,a3,1
     ae8:	00c68023          	sb	a2,0(a3)
     aec:	fa1ff06f          	j	a8c <xfputc+0x40>

00000af0 <xputs>:
     af0:	fe010113          	addi	sp,sp,-32
     af4:	01212823          	sw	s2,16(sp)
     af8:	00112e23          	sw	ra,28(sp)
     afc:	00812c23          	sw	s0,24(sp)
     b00:	00912a23          	sw	s1,20(sp)
     b04:	01312623          	sw	s3,12(sp)
     b08:	01412423          	sw	s4,8(sp)
     b0c:	01512223          	sw	s5,4(sp)
     b10:	00054403          	lbu	s0,0(a0)
     b14:	000047b7          	lui	a5,0x4
     b18:	0047a903          	lw	s2,4(a5) # 4004 <xfunc_output>
     b1c:	04040863          	beqz	s0,b6c <xputs+0x7c>
     b20:	00050493          	mv	s1,a0
     b24:	00a00993          	li	s3,10
     b28:	00004a37          	lui	s4,0x4
     b2c:	00d00a93          	li	s5,13
     b30:	0140006f          	j	b44 <xputs+0x54>
     b34:	00040513          	mv	a0,s0
     b38:	000900e7          	jalr	s2
     b3c:	0004c403          	lbu	s0,0(s1)
     b40:	02040663          	beqz	s0,b6c <xputs+0x7c>
     b44:	00148493          	addi	s1,s1,1
     b48:	05340463          	beq	s0,s3,b90 <xputs+0xa0>
     b4c:	fe0914e3          	bnez	s2,b34 <xputs+0x44>
     b50:	000a2783          	lw	a5,0(s4) # 4000 <strptr>
     b54:	fe0784e3          	beqz	a5,b3c <xputs+0x4c>
     b58:	00878023          	sb	s0,0(a5)
     b5c:	0004c403          	lbu	s0,0(s1)
     b60:	00178713          	addi	a4,a5,1
     b64:	00ea2023          	sw	a4,0(s4)
     b68:	fc041ee3          	bnez	s0,b44 <xputs+0x54>
     b6c:	01c12083          	lw	ra,28(sp)
     b70:	01812403          	lw	s0,24(sp)
     b74:	01412483          	lw	s1,20(sp)
     b78:	01012903          	lw	s2,16(sp)
     b7c:	00c12983          	lw	s3,12(sp)
     b80:	00812a03          	lw	s4,8(sp)
     b84:	00412a83          	lw	s5,4(sp)
     b88:	02010113          	addi	sp,sp,32
     b8c:	00008067          	ret
     b90:	00d00513          	li	a0,13
     b94:	00090663          	beqz	s2,ba0 <xputs+0xb0>
     b98:	000900e7          	jalr	s2
     b9c:	f99ff06f          	j	b34 <xputs+0x44>
     ba0:	000a2703          	lw	a4,0(s4)
     ba4:	f8070ce3          	beqz	a4,b3c <xputs+0x4c>
     ba8:	00170793          	addi	a5,a4,1
     bac:	01570023          	sb	s5,0(a4)
     bb0:	fa9ff06f          	j	b58 <xputs+0x68>

00000bb4 <xfputs>:
     bb4:	fe010113          	addi	sp,sp,-32
     bb8:	00812c23          	sw	s0,24(sp)
     bbc:	0005c403          	lbu	s0,0(a1)
     bc0:	00112e23          	sw	ra,28(sp)
     bc4:	00912a23          	sw	s1,20(sp)
     bc8:	01212823          	sw	s2,16(sp)
     bcc:	01312623          	sw	s3,12(sp)
     bd0:	01412423          	sw	s4,8(sp)
     bd4:	01512223          	sw	s5,4(sp)
     bd8:	04040a63          	beqz	s0,c2c <xfputs+0x78>
     bdc:	00058493          	mv	s1,a1
     be0:	00050913          	mv	s2,a0
     be4:	00a00993          	li	s3,10
     be8:	00004a37          	lui	s4,0x4
     bec:	00d00a93          	li	s5,13
     bf0:	0140006f          	j	c04 <xfputs+0x50>
     bf4:	00040513          	mv	a0,s0
     bf8:	000900e7          	jalr	s2
     bfc:	0004c403          	lbu	s0,0(s1)
     c00:	02040663          	beqz	s0,c2c <xfputs+0x78>
     c04:	00148493          	addi	s1,s1,1
     c08:	05340463          	beq	s0,s3,c50 <xfputs+0x9c>
     c0c:	fe0914e3          	bnez	s2,bf4 <xfputs+0x40>
     c10:	000a2783          	lw	a5,0(s4) # 4000 <strptr>
     c14:	fe0784e3          	beqz	a5,bfc <xfputs+0x48>
     c18:	00878023          	sb	s0,0(a5)
     c1c:	0004c403          	lbu	s0,0(s1)
     c20:	00178713          	addi	a4,a5,1
     c24:	00ea2023          	sw	a4,0(s4)
     c28:	fc041ee3          	bnez	s0,c04 <xfputs+0x50>
     c2c:	01c12083          	lw	ra,28(sp)
     c30:	01812403          	lw	s0,24(sp)
     c34:	01412483          	lw	s1,20(sp)
     c38:	01012903          	lw	s2,16(sp)
     c3c:	00c12983          	lw	s3,12(sp)
     c40:	00812a03          	lw	s4,8(sp)
     c44:	00412a83          	lw	s5,4(sp)
     c48:	02010113          	addi	sp,sp,32
     c4c:	00008067          	ret
     c50:	00d00513          	li	a0,13
     c54:	00090663          	beqz	s2,c60 <xfputs+0xac>
     c58:	000900e7          	jalr	s2
     c5c:	f99ff06f          	j	bf4 <xfputs+0x40>
     c60:	000a2703          	lw	a4,0(s4)
     c64:	f8070ce3          	beqz	a4,bfc <xfputs+0x48>
     c68:	00170793          	addi	a5,a4,1
     c6c:	01570023          	sb	s5,0(a4)
     c70:	fa9ff06f          	j	c18 <xfputs+0x64>

00000c74 <xprintf>:
     c74:	00050e13          	mv	t3,a0
     c78:	00004537          	lui	a0,0x4
     c7c:	fc010113          	addi	sp,sp,-64
     c80:	00452503          	lw	a0,4(a0) # 4004 <xfunc_output>
     c84:	02410313          	addi	t1,sp,36
     c88:	02b12223          	sw	a1,36(sp)
     c8c:	02c12423          	sw	a2,40(sp)
     c90:	000e0593          	mv	a1,t3
     c94:	00030613          	mv	a2,t1
     c98:	00112e23          	sw	ra,28(sp)
     c9c:	02d12623          	sw	a3,44(sp)
     ca0:	02e12823          	sw	a4,48(sp)
     ca4:	02f12a23          	sw	a5,52(sp)
     ca8:	03012c23          	sw	a6,56(sp)
     cac:	03112e23          	sw	a7,60(sp)
     cb0:	00612623          	sw	t1,12(sp)
     cb4:	d68ff0ef          	jal	ra,21c <xvfprintf>
     cb8:	01c12083          	lw	ra,28(sp)
     cbc:	04010113          	addi	sp,sp,64
     cc0:	00008067          	ret

00000cc4 <xfprintf>:
     cc4:	fc010113          	addi	sp,sp,-64
     cc8:	02810313          	addi	t1,sp,40
     ccc:	02c12423          	sw	a2,40(sp)
     cd0:	00030613          	mv	a2,t1
     cd4:	00112e23          	sw	ra,28(sp)
     cd8:	02d12623          	sw	a3,44(sp)
     cdc:	02e12823          	sw	a4,48(sp)
     ce0:	02f12a23          	sw	a5,52(sp)
     ce4:	03012c23          	sw	a6,56(sp)
     ce8:	03112e23          	sw	a7,60(sp)
     cec:	00612623          	sw	t1,12(sp)
     cf0:	d2cff0ef          	jal	ra,21c <xvfprintf>
     cf4:	01c12083          	lw	ra,28(sp)
     cf8:	04010113          	addi	sp,sp,64
     cfc:	00008067          	ret

00000d00 <xsprintf>:
     d00:	fc010113          	addi	sp,sp,-64
     d04:	02810313          	addi	t1,sp,40
     d08:	00812c23          	sw	s0,24(sp)
     d0c:	00050e13          	mv	t3,a0
     d10:	00004437          	lui	s0,0x4
     d14:	02c12423          	sw	a2,40(sp)
     d18:	00000513          	li	a0,0
     d1c:	00030613          	mv	a2,t1
     d20:	00112e23          	sw	ra,28(sp)
     d24:	02f12a23          	sw	a5,52(sp)
     d28:	02d12623          	sw	a3,44(sp)
     d2c:	02e12823          	sw	a4,48(sp)
     d30:	03012c23          	sw	a6,56(sp)
     d34:	03112e23          	sw	a7,60(sp)
     d38:	01c42023          	sw	t3,0(s0) # 4000 <strptr>
     d3c:	00612623          	sw	t1,12(sp)
     d40:	cdcff0ef          	jal	ra,21c <xvfprintf>
     d44:	00042783          	lw	a5,0(s0)
     d48:	00042023          	sw	zero,0(s0)
     d4c:	00078023          	sb	zero,0(a5)
     d50:	01c12083          	lw	ra,28(sp)
     d54:	01812403          	lw	s0,24(sp)
     d58:	04010113          	addi	sp,sp,64
     d5c:	00008067          	ret

00000d60 <__expr>:
     d60:	00002537          	lui	a0,0x2
     d64:	ff010113          	addi	sp,sp,-16
     d68:	d4c50513          	addi	a0,a0,-692 # 1d4c <strlen+0x110>
     d6c:	00112623          	sw	ra,12(sp)
     d70:	f05ff0ef          	jal	ra,c74 <xprintf>
     d74:	00002537          	lui	a0,0x2
     d78:	d6450513          	addi	a0,a0,-668 # 1d64 <strlen+0x128>
     d7c:	ef9ff0ef          	jal	ra,c74 <xprintf>
     d80:	0000006f          	j	d80 <__expr+0x20>

00000d84 <wait_ms>:
     d84:	00011637          	lui	a2,0x11
     d88:	fd010113          	addi	sp,sp,-48
     d8c:	17060613          	addi	a2,a2,368 # 11170 <xfunc_output+0xd16c>
     d90:	00000693          	li	a3,0
     d94:	02112623          	sw	ra,44(sp)
     d98:	02812423          	sw	s0,40(sp)
     d9c:	55d000ef          	jal	ra,1af8 <__muldi3>
     da0:	00a12c23          	sw	a0,24(sp)
     da4:	00b12e23          	sw	a1,28(sp)
     da8:	c6cff0ef          	jal	ra,214 <get_timeh>
     dac:	00050413          	mv	s0,a0
     db0:	c5cff0ef          	jal	ra,20c <get_timel>
     db4:	00a12423          	sw	a0,8(sp)
     db8:	00812623          	sw	s0,12(sp)
     dbc:	c58ff0ef          	jal	ra,214 <get_timeh>
     dc0:	00050413          	mv	s0,a0
     dc4:	c48ff0ef          	jal	ra,20c <get_timel>
     dc8:	00a12823          	sw	a0,16(sp)
     dcc:	00812a23          	sw	s0,20(sp)
     dd0:	01012783          	lw	a5,16(sp)
     dd4:	01412803          	lw	a6,20(sp)
     dd8:	00812303          	lw	t1,8(sp)
     ddc:	00c12383          	lw	t2,12(sp)
     de0:	01812503          	lw	a0,24(sp)
     de4:	40678633          	sub	a2,a5,t1
     de8:	01c12583          	lw	a1,28(sp)
     dec:	00c7b733          	sltu	a4,a5,a2
     df0:	407807b3          	sub	a5,a6,t2
     df4:	40e787b3          	sub	a5,a5,a4
     df8:	00f5e663          	bltu	a1,a5,e04 <wait_ms+0x80>
     dfc:	fcb790e3          	bne	a5,a1,dbc <wait_ms+0x38>
     e00:	fac57ee3          	bgeu	a0,a2,dbc <wait_ms+0x38>
     e04:	02c12083          	lw	ra,44(sp)
     e08:	02812403          	lw	s0,40(sp)
     e0c:	03010113          	addi	sp,sp,48
     e10:	00008067          	ret

00000e14 <get_time_ms>:
     e14:	ff010113          	addi	sp,sp,-16
     e18:	00112623          	sw	ra,12(sp)
     e1c:	00812423          	sw	s0,8(sp)
     e20:	bf4ff0ef          	jal	ra,214 <get_timeh>
     e24:	00050413          	mv	s0,a0
     e28:	be4ff0ef          	jal	ra,20c <get_timel>
     e2c:	00011637          	lui	a2,0x11
     e30:	00040593          	mv	a1,s0
     e34:	17060613          	addi	a2,a2,368 # 11170 <xfunc_output+0xd16c>
     e38:	00000693          	li	a3,0
     e3c:	1d0000ef          	jal	ra,100c <__udivdi3>
     e40:	00c12083          	lw	ra,12(sp)
     e44:	00812403          	lw	s0,8(sp)
     e48:	01010113          	addi	sp,sp,16
     e4c:	00008067          	ret

00000e50 <uart_putc>:
     e50:	fe010113          	addi	sp,sp,-32
     e54:	01212823          	sw	s2,16(sp)
     e58:	00008937          	lui	s2,0x8
     e5c:	00812c23          	sw	s0,24(sp)
     e60:	00912a23          	sw	s1,20(sp)
     e64:	00112e23          	sw	ra,28(sp)
     e68:	00050493          	mv	s1,a0
     e6c:	02890413          	addi	s0,s2,40 # 8028 <xfunc_output+0x4024>
     e70:	00040513          	mv	a0,s0
     e74:	b90ff0ef          	jal	ra,204 <get32>
     e78:	02057513          	andi	a0,a0,32
     e7c:	00a12623          	sw	a0,12(sp)
     e80:	00c12783          	lw	a5,12(sp)
     e84:	fe0786e3          	beqz	a5,e70 <uart_putc+0x20>
     e88:	01812403          	lw	s0,24(sp)
     e8c:	01c12083          	lw	ra,28(sp)
     e90:	00048593          	mv	a1,s1
     e94:	02490513          	addi	a0,s2,36
     e98:	01412483          	lw	s1,20(sp)
     e9c:	01012903          	lw	s2,16(sp)
     ea0:	02010113          	addi	sp,sp,32
     ea4:	b58ff06f          	j	1fc <put32>

00000ea8 <sdram_test>:
     ea8:	00002537          	lui	a0,0x2
     eac:	ff010113          	addi	sp,sp,-16
     eb0:	d7050513          	addi	a0,a0,-656 # 1d70 <strlen+0x134>
     eb4:	00812423          	sw	s0,8(sp)
     eb8:	00912223          	sw	s1,4(sp)
     ebc:	01212023          	sw	s2,0(sp)
     ec0:	00112623          	sw	ra,12(sp)
     ec4:	00000413          	li	s0,0
     ec8:	dadff0ef          	jal	ra,c74 <xprintf>
     ecc:	01000937          	lui	s2,0x1000
     ed0:	008004b7          	lui	s1,0x800
     ed4:	00040593          	mv	a1,s0
     ed8:	01240533          	add	a0,s0,s2
     edc:	00440413          	addi	s0,s0,4
     ee0:	b1cff0ef          	jal	ra,1fc <put32>
     ee4:	fe9418e3          	bne	s0,s1,ed4 <sdram_test+0x2c>
     ee8:	00002537          	lui	a0,0x2
     eec:	d8450513          	addi	a0,a0,-636 # 1d84 <strlen+0x148>
     ef0:	d85ff0ef          	jal	ra,c74 <xprintf>
     ef4:	00000413          	li	s0,0
     ef8:	010004b7          	lui	s1,0x1000
     efc:	00800937          	lui	s2,0x800
     f00:	00c0006f          	j	f0c <sdram_test+0x64>
     f04:	00440413          	addi	s0,s0,4
     f08:	05240263          	beq	s0,s2,f4c <sdram_test+0xa4>
     f0c:	00940533          	add	a0,s0,s1
     f10:	af4ff0ef          	jal	ra,204 <get32>
     f14:	fe8508e3          	beq	a0,s0,f04 <sdram_test+0x5c>
     f18:	00050693          	mv	a3,a0
     f1c:	00002537          	lui	a0,0x2
     f20:	00040613          	mv	a2,s0
     f24:	00040593          	mv	a1,s0
     f28:	d9850513          	addi	a0,a0,-616 # 1d98 <strlen+0x15c>
     f2c:	d49ff0ef          	jal	ra,c74 <xprintf>
     f30:	00c12083          	lw	ra,12(sp)
     f34:	00812403          	lw	s0,8(sp)
     f38:	00412483          	lw	s1,4(sp)
     f3c:	00012903          	lw	s2,0(sp)
     f40:	fff00513          	li	a0,-1
     f44:	01010113          	addi	sp,sp,16
     f48:	00008067          	ret
     f4c:	00c12083          	lw	ra,12(sp)
     f50:	00812403          	lw	s0,8(sp)
     f54:	00412483          	lw	s1,4(sp)
     f58:	00012903          	lw	s2,0(sp)
     f5c:	00000513          	li	a0,0
     f60:	01010113          	addi	sp,sp,16
     f64:	00008067          	ret

00000f68 <main>:
     f68:	000017b7          	lui	a5,0x1
     f6c:	ff010113          	addi	sp,sp,-16
     f70:	00004737          	lui	a4,0x4
     f74:	e5078793          	addi	a5,a5,-432 # e50 <uart_putc>
     f78:	00112623          	sw	ra,12(sp)
     f7c:	00812423          	sw	s0,8(sp)
     f80:	00f72223          	sw	a5,4(a4) # 4004 <xfunc_output>
     f84:	f25ff0ef          	jal	ra,ea8 <sdram_test>
     f88:	06051a63          	bnez	a0,ffc <main+0x94>
     f8c:	00002537          	lui	a0,0x2
     f90:	dc850513          	addi	a0,a0,-568 # 1dc8 <strlen+0x18c>
     f94:	ce1ff0ef          	jal	ra,c74 <xprintf>
     f98:	00002537          	lui	a0,0x2
     f9c:	dfc50513          	addi	a0,a0,-516 # 1dfc <strlen+0x1c0>
     fa0:	cd5ff0ef          	jal	ra,c74 <xprintf>
     fa4:	00002437          	lui	s0,0x2
     fa8:	1f400513          	li	a0,500
     fac:	00000593          	li	a1,0
     fb0:	dd5ff0ef          	jal	ra,d84 <wait_ms>
     fb4:	05500593          	li	a1,85
     fb8:	00008537          	lui	a0,0x8
     fbc:	a40ff0ef          	jal	ra,1fc <put32>
     fc0:	1f400513          	li	a0,500
     fc4:	00000593          	li	a1,0
     fc8:	dbdff0ef          	jal	ra,d84 <wait_ms>
     fcc:	0aa00593          	li	a1,170
     fd0:	00008537          	lui	a0,0x8
     fd4:	a28ff0ef          	jal	ra,1fc <put32>
     fd8:	e3dff0ef          	jal	ra,e14 <get_time_ms>
     fdc:	3e800613          	li	a2,1000
     fe0:	00000693          	li	a3,0
     fe4:	028000ef          	jal	ra,100c <__udivdi3>
     fe8:	00050613          	mv	a2,a0
     fec:	00058693          	mv	a3,a1
     ff0:	e1840513          	addi	a0,s0,-488 # 1e18 <strlen+0x1dc>
     ff4:	c81ff0ef          	jal	ra,c74 <xprintf>
     ff8:	fb1ff06f          	j	fa8 <main+0x40>
     ffc:	00002537          	lui	a0,0x2
    1000:	de050513          	addi	a0,a0,-544 # 1de0 <strlen+0x1a4>
    1004:	c71ff0ef          	jal	ra,c74 <xprintf>
    1008:	f91ff06f          	j	f98 <main+0x30>

0000100c <__udivdi3>:
    100c:	fd010113          	addi	sp,sp,-48
    1010:	02812423          	sw	s0,40(sp)
    1014:	01712623          	sw	s7,12(sp)
    1018:	02112623          	sw	ra,44(sp)
    101c:	02912223          	sw	s1,36(sp)
    1020:	03212023          	sw	s2,32(sp)
    1024:	01312e23          	sw	s3,28(sp)
    1028:	01412c23          	sw	s4,24(sp)
    102c:	01512a23          	sw	s5,20(sp)
    1030:	01612823          	sw	s6,16(sp)
    1034:	01812423          	sw	s8,8(sp)
    1038:	01912223          	sw	s9,4(sp)
    103c:	00050b93          	mv	s7,a0
    1040:	00058413          	mv	s0,a1
    1044:	38069c63          	bnez	a3,13dc <__udivdi3+0x3d0>
    1048:	000024b7          	lui	s1,0x2
    104c:	00060913          	mv	s2,a2
    1050:	00050a13          	mv	s4,a0
    1054:	e3848493          	addi	s1,s1,-456 # 1e38 <__clz_tab>
    1058:	12c5f863          	bgeu	a1,a2,1188 <__udivdi3+0x17c>
    105c:	000107b7          	lui	a5,0x10
    1060:	00058c13          	mv	s8,a1
    1064:	10f67863          	bgeu	a2,a5,1174 <__udivdi3+0x168>
    1068:	0ff00713          	li	a4,255
    106c:	00c73733          	sltu	a4,a4,a2
    1070:	00371713          	slli	a4,a4,0x3
    1074:	00e657b3          	srl	a5,a2,a4
    1078:	00f484b3          	add	s1,s1,a5
    107c:	0004c683          	lbu	a3,0(s1)
    1080:	00e68733          	add	a4,a3,a4
    1084:	02000693          	li	a3,32
    1088:	40e687b3          	sub	a5,a3,a4
    108c:	00e68c63          	beq	a3,a4,10a4 <__udivdi3+0x98>
    1090:	00f41433          	sll	s0,s0,a5
    1094:	00ebd733          	srl	a4,s7,a4
    1098:	00f61933          	sll	s2,a2,a5
    109c:	00876c33          	or	s8,a4,s0
    10a0:	00fb9a33          	sll	s4,s7,a5
    10a4:	01095b13          	srli	s6,s2,0x10
    10a8:	000b0593          	mv	a1,s6
    10ac:	000c0513          	mv	a0,s8
    10b0:	329000ef          	jal	ra,1bd8 <__umodsi3>
    10b4:	00050493          	mv	s1,a0
    10b8:	000b0593          	mv	a1,s6
    10bc:	01091a93          	slli	s5,s2,0x10
    10c0:	000c0513          	mv	a0,s8
    10c4:	2cd000ef          	jal	ra,1b90 <__udivsi3>
    10c8:	010ada93          	srli	s5,s5,0x10
    10cc:	00050413          	mv	s0,a0
    10d0:	00050593          	mv	a1,a0
    10d4:	000a8513          	mv	a0,s5
    10d8:	1fd000ef          	jal	ra,1ad4 <__mulsi3>
    10dc:	01049493          	slli	s1,s1,0x10
    10e0:	010a5713          	srli	a4,s4,0x10
    10e4:	00e4e733          	or	a4,s1,a4
    10e8:	00040993          	mv	s3,s0
    10ec:	00a77e63          	bgeu	a4,a0,1108 <__udivdi3+0xfc>
    10f0:	01270733          	add	a4,a4,s2
    10f4:	fff40993          	addi	s3,s0,-1
    10f8:	01276863          	bltu	a4,s2,1108 <__udivdi3+0xfc>
    10fc:	00a77663          	bgeu	a4,a0,1108 <__udivdi3+0xfc>
    1100:	ffe40993          	addi	s3,s0,-2
    1104:	01270733          	add	a4,a4,s2
    1108:	40a70433          	sub	s0,a4,a0
    110c:	000b0593          	mv	a1,s6
    1110:	00040513          	mv	a0,s0
    1114:	2c5000ef          	jal	ra,1bd8 <__umodsi3>
    1118:	00050493          	mv	s1,a0
    111c:	000b0593          	mv	a1,s6
    1120:	00040513          	mv	a0,s0
    1124:	26d000ef          	jal	ra,1b90 <__udivsi3>
    1128:	010a1a13          	slli	s4,s4,0x10
    112c:	00050413          	mv	s0,a0
    1130:	00050593          	mv	a1,a0
    1134:	01049493          	slli	s1,s1,0x10
    1138:	000a8513          	mv	a0,s5
    113c:	010a5a13          	srli	s4,s4,0x10
    1140:	195000ef          	jal	ra,1ad4 <__mulsi3>
    1144:	0144ea33          	or	s4,s1,s4
    1148:	00040613          	mv	a2,s0
    114c:	00aa7c63          	bgeu	s4,a0,1164 <__udivdi3+0x158>
    1150:	01490a33          	add	s4,s2,s4
    1154:	fff40613          	addi	a2,s0,-1
    1158:	012a6663          	bltu	s4,s2,1164 <__udivdi3+0x158>
    115c:	00aa7463          	bgeu	s4,a0,1164 <__udivdi3+0x158>
    1160:	ffe40613          	addi	a2,s0,-2
    1164:	01099793          	slli	a5,s3,0x10
    1168:	00c7e7b3          	or	a5,a5,a2
    116c:	00000493          	li	s1,0
    1170:	1300006f          	j	12a0 <__udivdi3+0x294>
    1174:	010007b7          	lui	a5,0x1000
    1178:	01000713          	li	a4,16
    117c:	eef66ce3          	bltu	a2,a5,1074 <__udivdi3+0x68>
    1180:	01800713          	li	a4,24
    1184:	ef1ff06f          	j	1074 <__udivdi3+0x68>
    1188:	00068993          	mv	s3,a3
    118c:	00061a63          	bnez	a2,11a0 <__udivdi3+0x194>
    1190:	00000593          	li	a1,0
    1194:	00100513          	li	a0,1
    1198:	1f9000ef          	jal	ra,1b90 <__udivsi3>
    119c:	00050913          	mv	s2,a0
    11a0:	000107b7          	lui	a5,0x10
    11a4:	12f97c63          	bgeu	s2,a5,12dc <__udivdi3+0x2d0>
    11a8:	0ff00793          	li	a5,255
    11ac:	0127f463          	bgeu	a5,s2,11b4 <__udivdi3+0x1a8>
    11b0:	00800993          	li	s3,8
    11b4:	013957b3          	srl	a5,s2,s3
    11b8:	00f484b3          	add	s1,s1,a5
    11bc:	0004c783          	lbu	a5,0(s1)
    11c0:	02000693          	li	a3,32
    11c4:	013787b3          	add	a5,a5,s3
    11c8:	40f68733          	sub	a4,a3,a5
    11cc:	12f69263          	bne	a3,a5,12f0 <__udivdi3+0x2e4>
    11d0:	41240433          	sub	s0,s0,s2
    11d4:	00100493          	li	s1,1
    11d8:	01095a93          	srli	s5,s2,0x10
    11dc:	000a8593          	mv	a1,s5
    11e0:	00040513          	mv	a0,s0
    11e4:	1f5000ef          	jal	ra,1bd8 <__umodsi3>
    11e8:	00050993          	mv	s3,a0
    11ec:	000a8593          	mv	a1,s5
    11f0:	00040513          	mv	a0,s0
    11f4:	01091b13          	slli	s6,s2,0x10
    11f8:	199000ef          	jal	ra,1b90 <__udivsi3>
    11fc:	010b5b13          	srli	s6,s6,0x10
    1200:	00050413          	mv	s0,a0
    1204:	00050593          	mv	a1,a0
    1208:	000b0513          	mv	a0,s6
    120c:	0c9000ef          	jal	ra,1ad4 <__mulsi3>
    1210:	01099993          	slli	s3,s3,0x10
    1214:	010a5713          	srli	a4,s4,0x10
    1218:	00e9e733          	or	a4,s3,a4
    121c:	00040b93          	mv	s7,s0
    1220:	00a77e63          	bgeu	a4,a0,123c <__udivdi3+0x230>
    1224:	01270733          	add	a4,a4,s2
    1228:	fff40b93          	addi	s7,s0,-1
    122c:	01276863          	bltu	a4,s2,123c <__udivdi3+0x230>
    1230:	00a77663          	bgeu	a4,a0,123c <__udivdi3+0x230>
    1234:	ffe40b93          	addi	s7,s0,-2
    1238:	01270733          	add	a4,a4,s2
    123c:	40a70433          	sub	s0,a4,a0
    1240:	000a8593          	mv	a1,s5
    1244:	00040513          	mv	a0,s0
    1248:	191000ef          	jal	ra,1bd8 <__umodsi3>
    124c:	00050993          	mv	s3,a0
    1250:	000a8593          	mv	a1,s5
    1254:	00040513          	mv	a0,s0
    1258:	139000ef          	jal	ra,1b90 <__udivsi3>
    125c:	010a1a13          	slli	s4,s4,0x10
    1260:	00050413          	mv	s0,a0
    1264:	00050593          	mv	a1,a0
    1268:	01099993          	slli	s3,s3,0x10
    126c:	000b0513          	mv	a0,s6
    1270:	010a5a13          	srli	s4,s4,0x10
    1274:	061000ef          	jal	ra,1ad4 <__mulsi3>
    1278:	0149ea33          	or	s4,s3,s4
    127c:	00040613          	mv	a2,s0
    1280:	00aa7c63          	bgeu	s4,a0,1298 <__udivdi3+0x28c>
    1284:	01490a33          	add	s4,s2,s4
    1288:	fff40613          	addi	a2,s0,-1
    128c:	012a6663          	bltu	s4,s2,1298 <__udivdi3+0x28c>
    1290:	00aa7463          	bgeu	s4,a0,1298 <__udivdi3+0x28c>
    1294:	ffe40613          	addi	a2,s0,-2
    1298:	010b9793          	slli	a5,s7,0x10
    129c:	00c7e7b3          	or	a5,a5,a2
    12a0:	00078513          	mv	a0,a5
    12a4:	00048593          	mv	a1,s1
    12a8:	02c12083          	lw	ra,44(sp)
    12ac:	02812403          	lw	s0,40(sp)
    12b0:	02412483          	lw	s1,36(sp)
    12b4:	02012903          	lw	s2,32(sp)
    12b8:	01c12983          	lw	s3,28(sp)
    12bc:	01812a03          	lw	s4,24(sp)
    12c0:	01412a83          	lw	s5,20(sp)
    12c4:	01012b03          	lw	s6,16(sp)
    12c8:	00c12b83          	lw	s7,12(sp)
    12cc:	00812c03          	lw	s8,8(sp)
    12d0:	00412c83          	lw	s9,4(sp)
    12d4:	03010113          	addi	sp,sp,48
    12d8:	00008067          	ret
    12dc:	010007b7          	lui	a5,0x1000
    12e0:	01000993          	li	s3,16
    12e4:	ecf968e3          	bltu	s2,a5,11b4 <__udivdi3+0x1a8>
    12e8:	01800993          	li	s3,24
    12ec:	ec9ff06f          	j	11b4 <__udivdi3+0x1a8>
    12f0:	00e91933          	sll	s2,s2,a4
    12f4:	00f459b3          	srl	s3,s0,a5
    12f8:	00fbd7b3          	srl	a5,s7,a5
    12fc:	00e41433          	sll	s0,s0,a4
    1300:	0087eab3          	or	s5,a5,s0
    1304:	01095413          	srli	s0,s2,0x10
    1308:	00040593          	mv	a1,s0
    130c:	00098513          	mv	a0,s3
    1310:	00eb9a33          	sll	s4,s7,a4
    1314:	0c5000ef          	jal	ra,1bd8 <__umodsi3>
    1318:	00050493          	mv	s1,a0
    131c:	00040593          	mv	a1,s0
    1320:	00098513          	mv	a0,s3
    1324:	01091b13          	slli	s6,s2,0x10
    1328:	069000ef          	jal	ra,1b90 <__udivsi3>
    132c:	010b5b13          	srli	s6,s6,0x10
    1330:	00050993          	mv	s3,a0
    1334:	00050593          	mv	a1,a0
    1338:	000b0513          	mv	a0,s6
    133c:	798000ef          	jal	ra,1ad4 <__mulsi3>
    1340:	01049493          	slli	s1,s1,0x10
    1344:	010ad793          	srli	a5,s5,0x10
    1348:	00f4e7b3          	or	a5,s1,a5
    134c:	00098b93          	mv	s7,s3
    1350:	00a7fe63          	bgeu	a5,a0,136c <__udivdi3+0x360>
    1354:	012787b3          	add	a5,a5,s2
    1358:	fff98b93          	addi	s7,s3,-1
    135c:	0127e863          	bltu	a5,s2,136c <__udivdi3+0x360>
    1360:	00a7f663          	bgeu	a5,a0,136c <__udivdi3+0x360>
    1364:	ffe98b93          	addi	s7,s3,-2
    1368:	012787b3          	add	a5,a5,s2
    136c:	40a789b3          	sub	s3,a5,a0
    1370:	00040593          	mv	a1,s0
    1374:	00098513          	mv	a0,s3
    1378:	061000ef          	jal	ra,1bd8 <__umodsi3>
    137c:	00040593          	mv	a1,s0
    1380:	00050493          	mv	s1,a0
    1384:	00098513          	mv	a0,s3
    1388:	009000ef          	jal	ra,1b90 <__udivsi3>
    138c:	010a9413          	slli	s0,s5,0x10
    1390:	00050993          	mv	s3,a0
    1394:	00050593          	mv	a1,a0
    1398:	01049493          	slli	s1,s1,0x10
    139c:	000b0513          	mv	a0,s6
    13a0:	01045413          	srli	s0,s0,0x10
    13a4:	730000ef          	jal	ra,1ad4 <__mulsi3>
    13a8:	0084e433          	or	s0,s1,s0
    13ac:	00098793          	mv	a5,s3
    13b0:	00a47e63          	bgeu	s0,a0,13cc <__udivdi3+0x3c0>
    13b4:	01240433          	add	s0,s0,s2
    13b8:	fff98793          	addi	a5,s3,-1
    13bc:	01246863          	bltu	s0,s2,13cc <__udivdi3+0x3c0>
    13c0:	00a47663          	bgeu	s0,a0,13cc <__udivdi3+0x3c0>
    13c4:	ffe98793          	addi	a5,s3,-2
    13c8:	01240433          	add	s0,s0,s2
    13cc:	010b9493          	slli	s1,s7,0x10
    13d0:	40a40433          	sub	s0,s0,a0
    13d4:	00f4e4b3          	or	s1,s1,a5
    13d8:	e01ff06f          	j	11d8 <__udivdi3+0x1cc>
    13dc:	1ed5ee63          	bltu	a1,a3,15d8 <__udivdi3+0x5cc>
    13e0:	000107b7          	lui	a5,0x10
    13e4:	04f6f463          	bgeu	a3,a5,142c <__udivdi3+0x420>
    13e8:	0ff00a93          	li	s5,255
    13ec:	00dab733          	sltu	a4,s5,a3
    13f0:	00371713          	slli	a4,a4,0x3
    13f4:	000027b7          	lui	a5,0x2
    13f8:	00e6d5b3          	srl	a1,a3,a4
    13fc:	e3878793          	addi	a5,a5,-456 # 1e38 <__clz_tab>
    1400:	00b787b3          	add	a5,a5,a1
    1404:	0007ca83          	lbu	s5,0(a5)
    1408:	02000793          	li	a5,32
    140c:	00ea8ab3          	add	s5,s5,a4
    1410:	415784b3          	sub	s1,a5,s5
    1414:	03579663          	bne	a5,s5,1440 <__udivdi3+0x434>
    1418:	00100793          	li	a5,1
    141c:	e886e2e3          	bltu	a3,s0,12a0 <__udivdi3+0x294>
    1420:	00cbb633          	sltu	a2,s7,a2
    1424:	00164793          	xori	a5,a2,1
    1428:	e79ff06f          	j	12a0 <__udivdi3+0x294>
    142c:	010007b7          	lui	a5,0x1000
    1430:	01000713          	li	a4,16
    1434:	fcf6e0e3          	bltu	a3,a5,13f4 <__udivdi3+0x3e8>
    1438:	01800713          	li	a4,24
    143c:	fb9ff06f          	j	13f4 <__udivdi3+0x3e8>
    1440:	01565cb3          	srl	s9,a2,s5
    1444:	009696b3          	sll	a3,a3,s1
    1448:	00dcecb3          	or	s9,s9,a3
    144c:	015459b3          	srl	s3,s0,s5
    1450:	00941433          	sll	s0,s0,s1
    1454:	015bdab3          	srl	s5,s7,s5
    1458:	008aeab3          	or	s5,s5,s0
    145c:	010cd413          	srli	s0,s9,0x10
    1460:	00040593          	mv	a1,s0
    1464:	00098513          	mv	a0,s3
    1468:	00961933          	sll	s2,a2,s1
    146c:	76c000ef          	jal	ra,1bd8 <__umodsi3>
    1470:	00050a13          	mv	s4,a0
    1474:	00040593          	mv	a1,s0
    1478:	00098513          	mv	a0,s3
    147c:	010c9b13          	slli	s6,s9,0x10
    1480:	710000ef          	jal	ra,1b90 <__udivsi3>
    1484:	010b5b13          	srli	s6,s6,0x10
    1488:	00050993          	mv	s3,a0
    148c:	00050593          	mv	a1,a0
    1490:	000b0513          	mv	a0,s6
    1494:	640000ef          	jal	ra,1ad4 <__mulsi3>
    1498:	010a1a13          	slli	s4,s4,0x10
    149c:	010ad713          	srli	a4,s5,0x10
    14a0:	00ea6733          	or	a4,s4,a4
    14a4:	00098c13          	mv	s8,s3
    14a8:	00a77e63          	bgeu	a4,a0,14c4 <__udivdi3+0x4b8>
    14ac:	01970733          	add	a4,a4,s9
    14b0:	fff98c13          	addi	s8,s3,-1
    14b4:	01976863          	bltu	a4,s9,14c4 <__udivdi3+0x4b8>
    14b8:	00a77663          	bgeu	a4,a0,14c4 <__udivdi3+0x4b8>
    14bc:	ffe98c13          	addi	s8,s3,-2
    14c0:	01970733          	add	a4,a4,s9
    14c4:	40a709b3          	sub	s3,a4,a0
    14c8:	00040593          	mv	a1,s0
    14cc:	00098513          	mv	a0,s3
    14d0:	708000ef          	jal	ra,1bd8 <__umodsi3>
    14d4:	00040593          	mv	a1,s0
    14d8:	00050a13          	mv	s4,a0
    14dc:	00098513          	mv	a0,s3
    14e0:	6b0000ef          	jal	ra,1b90 <__udivsi3>
    14e4:	010a9413          	slli	s0,s5,0x10
    14e8:	00050993          	mv	s3,a0
    14ec:	00050593          	mv	a1,a0
    14f0:	010a1a13          	slli	s4,s4,0x10
    14f4:	000b0513          	mv	a0,s6
    14f8:	01045413          	srli	s0,s0,0x10
    14fc:	5d8000ef          	jal	ra,1ad4 <__mulsi3>
    1500:	008a6433          	or	s0,s4,s0
    1504:	00098613          	mv	a2,s3
    1508:	00a47e63          	bgeu	s0,a0,1524 <__udivdi3+0x518>
    150c:	01940433          	add	s0,s0,s9
    1510:	fff98613          	addi	a2,s3,-1
    1514:	01946863          	bltu	s0,s9,1524 <__udivdi3+0x518>
    1518:	00a47663          	bgeu	s0,a0,1524 <__udivdi3+0x518>
    151c:	ffe98613          	addi	a2,s3,-2
    1520:	01940433          	add	s0,s0,s9
    1524:	010c1793          	slli	a5,s8,0x10
    1528:	00010e37          	lui	t3,0x10
    152c:	00c7e7b3          	or	a5,a5,a2
    1530:	fffe0313          	addi	t1,t3,-1 # ffff <xfunc_output+0xbffb>
    1534:	0067f8b3          	and	a7,a5,t1
    1538:	00697333          	and	t1,s2,t1
    153c:	40a40433          	sub	s0,s0,a0
    1540:	0107de93          	srli	t4,a5,0x10
    1544:	01095913          	srli	s2,s2,0x10
    1548:	00088513          	mv	a0,a7
    154c:	00030593          	mv	a1,t1
    1550:	584000ef          	jal	ra,1ad4 <__mulsi3>
    1554:	00050813          	mv	a6,a0
    1558:	00090593          	mv	a1,s2
    155c:	00088513          	mv	a0,a7
    1560:	574000ef          	jal	ra,1ad4 <__mulsi3>
    1564:	00050893          	mv	a7,a0
    1568:	00030593          	mv	a1,t1
    156c:	000e8513          	mv	a0,t4
    1570:	564000ef          	jal	ra,1ad4 <__mulsi3>
    1574:	00050313          	mv	t1,a0
    1578:	00090593          	mv	a1,s2
    157c:	000e8513          	mv	a0,t4
    1580:	554000ef          	jal	ra,1ad4 <__mulsi3>
    1584:	01085713          	srli	a4,a6,0x10
    1588:	006888b3          	add	a7,a7,t1
    158c:	01170733          	add	a4,a4,a7
    1590:	00050693          	mv	a3,a0
    1594:	00677463          	bgeu	a4,t1,159c <__udivdi3+0x590>
    1598:	01c506b3          	add	a3,a0,t3
    159c:	01075513          	srli	a0,a4,0x10
    15a0:	00d506b3          	add	a3,a0,a3
    15a4:	02d46663          	bltu	s0,a3,15d0 <__udivdi3+0x5c4>
    15a8:	bcd412e3          	bne	s0,a3,116c <__udivdi3+0x160>
    15ac:	00010537          	lui	a0,0x10
    15b0:	fff50513          	addi	a0,a0,-1 # ffff <xfunc_output+0xbffb>
    15b4:	00a77733          	and	a4,a4,a0
    15b8:	01071713          	slli	a4,a4,0x10
    15bc:	00a87833          	and	a6,a6,a0
    15c0:	009b9bb3          	sll	s7,s7,s1
    15c4:	01070733          	add	a4,a4,a6
    15c8:	00000493          	li	s1,0
    15cc:	ccebfae3          	bgeu	s7,a4,12a0 <__udivdi3+0x294>
    15d0:	fff78793          	addi	a5,a5,-1 # ffffff <xfunc_output+0xffbffb>
    15d4:	b99ff06f          	j	116c <__udivdi3+0x160>
    15d8:	00000493          	li	s1,0
    15dc:	00000793          	li	a5,0
    15e0:	cc1ff06f          	j	12a0 <__udivdi3+0x294>

000015e4 <__umoddi3>:
    15e4:	fd010113          	addi	sp,sp,-48
    15e8:	02812423          	sw	s0,40(sp)
    15ec:	02912223          	sw	s1,36(sp)
    15f0:	03212023          	sw	s2,32(sp)
    15f4:	01612823          	sw	s6,16(sp)
    15f8:	02112623          	sw	ra,44(sp)
    15fc:	01312e23          	sw	s3,28(sp)
    1600:	01412c23          	sw	s4,24(sp)
    1604:	01512a23          	sw	s5,20(sp)
    1608:	01712623          	sw	s7,12(sp)
    160c:	01812423          	sw	s8,8(sp)
    1610:	01912223          	sw	s9,4(sp)
    1614:	01a12023          	sw	s10,0(sp)
    1618:	00050913          	mv	s2,a0
    161c:	00058b13          	mv	s6,a1
    1620:	00050413          	mv	s0,a0
    1624:	00058493          	mv	s1,a1
    1628:	26069c63          	bnez	a3,18a0 <__umoddi3+0x2bc>
    162c:	00002ab7          	lui	s5,0x2
    1630:	00060a13          	mv	s4,a2
    1634:	00068993          	mv	s3,a3
    1638:	e38a8a93          	addi	s5,s5,-456 # 1e38 <__clz_tab>
    163c:	14c5f263          	bgeu	a1,a2,1780 <__umoddi3+0x19c>
    1640:	000107b7          	lui	a5,0x10
    1644:	12f67463          	bgeu	a2,a5,176c <__umoddi3+0x188>
    1648:	0ff00793          	li	a5,255
    164c:	00c7f463          	bgeu	a5,a2,1654 <__umoddi3+0x70>
    1650:	00800993          	li	s3,8
    1654:	013657b3          	srl	a5,a2,s3
    1658:	00fa8ab3          	add	s5,s5,a5
    165c:	000ac783          	lbu	a5,0(s5)
    1660:	02000713          	li	a4,32
    1664:	013787b3          	add	a5,a5,s3
    1668:	40f709b3          	sub	s3,a4,a5
    166c:	00f70c63          	beq	a4,a5,1684 <__umoddi3+0xa0>
    1670:	013b15b3          	sll	a1,s6,s3
    1674:	00f957b3          	srl	a5,s2,a5
    1678:	01361a33          	sll	s4,a2,s3
    167c:	00b7e4b3          	or	s1,a5,a1
    1680:	01391433          	sll	s0,s2,s3
    1684:	010a5a93          	srli	s5,s4,0x10
    1688:	000a8593          	mv	a1,s5
    168c:	00048513          	mv	a0,s1
    1690:	548000ef          	jal	ra,1bd8 <__umodsi3>
    1694:	00050913          	mv	s2,a0
    1698:	000a8593          	mv	a1,s5
    169c:	010a1b13          	slli	s6,s4,0x10
    16a0:	00048513          	mv	a0,s1
    16a4:	4ec000ef          	jal	ra,1b90 <__udivsi3>
    16a8:	010b5b13          	srli	s6,s6,0x10
    16ac:	00050593          	mv	a1,a0
    16b0:	000b0513          	mv	a0,s6
    16b4:	420000ef          	jal	ra,1ad4 <__mulsi3>
    16b8:	01091913          	slli	s2,s2,0x10
    16bc:	01045793          	srli	a5,s0,0x10
    16c0:	00f967b3          	or	a5,s2,a5
    16c4:	00a7fa63          	bgeu	a5,a0,16d8 <__umoddi3+0xf4>
    16c8:	014787b3          	add	a5,a5,s4
    16cc:	0147e663          	bltu	a5,s4,16d8 <__umoddi3+0xf4>
    16d0:	00a7f463          	bgeu	a5,a0,16d8 <__umoddi3+0xf4>
    16d4:	014787b3          	add	a5,a5,s4
    16d8:	40a784b3          	sub	s1,a5,a0
    16dc:	000a8593          	mv	a1,s5
    16e0:	00048513          	mv	a0,s1
    16e4:	4f4000ef          	jal	ra,1bd8 <__umodsi3>
    16e8:	00050913          	mv	s2,a0
    16ec:	000a8593          	mv	a1,s5
    16f0:	00048513          	mv	a0,s1
    16f4:	49c000ef          	jal	ra,1b90 <__udivsi3>
    16f8:	01041413          	slli	s0,s0,0x10
    16fc:	00050593          	mv	a1,a0
    1700:	01091913          	slli	s2,s2,0x10
    1704:	000b0513          	mv	a0,s6
    1708:	01045413          	srli	s0,s0,0x10
    170c:	3c8000ef          	jal	ra,1ad4 <__mulsi3>
    1710:	00896433          	or	s0,s2,s0
    1714:	00a47a63          	bgeu	s0,a0,1728 <__umoddi3+0x144>
    1718:	01440433          	add	s0,s0,s4
    171c:	01446663          	bltu	s0,s4,1728 <__umoddi3+0x144>
    1720:	00a47463          	bgeu	s0,a0,1728 <__umoddi3+0x144>
    1724:	01440433          	add	s0,s0,s4
    1728:	40a40433          	sub	s0,s0,a0
    172c:	01345533          	srl	a0,s0,s3
    1730:	00000593          	li	a1,0
    1734:	02c12083          	lw	ra,44(sp)
    1738:	02812403          	lw	s0,40(sp)
    173c:	02412483          	lw	s1,36(sp)
    1740:	02012903          	lw	s2,32(sp)
    1744:	01c12983          	lw	s3,28(sp)
    1748:	01812a03          	lw	s4,24(sp)
    174c:	01412a83          	lw	s5,20(sp)
    1750:	01012b03          	lw	s6,16(sp)
    1754:	00c12b83          	lw	s7,12(sp)
    1758:	00812c03          	lw	s8,8(sp)
    175c:	00412c83          	lw	s9,4(sp)
    1760:	00012d03          	lw	s10,0(sp)
    1764:	03010113          	addi	sp,sp,48
    1768:	00008067          	ret
    176c:	010007b7          	lui	a5,0x1000
    1770:	01000993          	li	s3,16
    1774:	eef660e3          	bltu	a2,a5,1654 <__umoddi3+0x70>
    1778:	01800993          	li	s3,24
    177c:	ed9ff06f          	j	1654 <__umoddi3+0x70>
    1780:	00061a63          	bnez	a2,1794 <__umoddi3+0x1b0>
    1784:	00000593          	li	a1,0
    1788:	00100513          	li	a0,1
    178c:	404000ef          	jal	ra,1b90 <__udivsi3>
    1790:	00050a13          	mv	s4,a0
    1794:	000107b7          	lui	a5,0x10
    1798:	0efa7a63          	bgeu	s4,a5,188c <__umoddi3+0x2a8>
    179c:	0ff00793          	li	a5,255
    17a0:	0147f463          	bgeu	a5,s4,17a8 <__umoddi3+0x1c4>
    17a4:	00800993          	li	s3,8
    17a8:	013a57b3          	srl	a5,s4,s3
    17ac:	00fa8ab3          	add	s5,s5,a5
    17b0:	000ac783          	lbu	a5,0(s5)
    17b4:	02000713          	li	a4,32
    17b8:	414b04b3          	sub	s1,s6,s4
    17bc:	013787b3          	add	a5,a5,s3
    17c0:	40f709b3          	sub	s3,a4,a5
    17c4:	ecf700e3          	beq	a4,a5,1684 <__umoddi3+0xa0>
    17c8:	013a1a33          	sll	s4,s4,s3
    17cc:	00fb5ab3          	srl	s5,s6,a5
    17d0:	013b15b3          	sll	a1,s6,s3
    17d4:	00f957b3          	srl	a5,s2,a5
    17d8:	010a5493          	srli	s1,s4,0x10
    17dc:	00b7eb33          	or	s6,a5,a1
    17e0:	000a8513          	mv	a0,s5
    17e4:	00048593          	mv	a1,s1
    17e8:	3f0000ef          	jal	ra,1bd8 <__umodsi3>
    17ec:	00048593          	mv	a1,s1
    17f0:	01391433          	sll	s0,s2,s3
    17f4:	010a1b93          	slli	s7,s4,0x10
    17f8:	00050913          	mv	s2,a0
    17fc:	000a8513          	mv	a0,s5
    1800:	390000ef          	jal	ra,1b90 <__udivsi3>
    1804:	010bdb93          	srli	s7,s7,0x10
    1808:	00050593          	mv	a1,a0
    180c:	000b8513          	mv	a0,s7
    1810:	2c4000ef          	jal	ra,1ad4 <__mulsi3>
    1814:	01091913          	slli	s2,s2,0x10
    1818:	010b5793          	srli	a5,s6,0x10
    181c:	00f967b3          	or	a5,s2,a5
    1820:	00a7fa63          	bgeu	a5,a0,1834 <__umoddi3+0x250>
    1824:	014787b3          	add	a5,a5,s4
    1828:	0147e663          	bltu	a5,s4,1834 <__umoddi3+0x250>
    182c:	00a7f463          	bgeu	a5,a0,1834 <__umoddi3+0x250>
    1830:	014787b3          	add	a5,a5,s4
    1834:	40a78ab3          	sub	s5,a5,a0
    1838:	00048593          	mv	a1,s1
    183c:	000a8513          	mv	a0,s5
    1840:	398000ef          	jal	ra,1bd8 <__umodsi3>
    1844:	00050913          	mv	s2,a0
    1848:	00048593          	mv	a1,s1
    184c:	000a8513          	mv	a0,s5
    1850:	340000ef          	jal	ra,1b90 <__udivsi3>
    1854:	00050593          	mv	a1,a0
    1858:	000b8513          	mv	a0,s7
    185c:	278000ef          	jal	ra,1ad4 <__mulsi3>
    1860:	010b1593          	slli	a1,s6,0x10
    1864:	01091913          	slli	s2,s2,0x10
    1868:	0105d593          	srli	a1,a1,0x10
    186c:	00b965b3          	or	a1,s2,a1
    1870:	00a5fa63          	bgeu	a1,a0,1884 <__umoddi3+0x2a0>
    1874:	014585b3          	add	a1,a1,s4
    1878:	0145e663          	bltu	a1,s4,1884 <__umoddi3+0x2a0>
    187c:	00a5f463          	bgeu	a1,a0,1884 <__umoddi3+0x2a0>
    1880:	014585b3          	add	a1,a1,s4
    1884:	40a584b3          	sub	s1,a1,a0
    1888:	dfdff06f          	j	1684 <__umoddi3+0xa0>
    188c:	010007b7          	lui	a5,0x1000
    1890:	01000993          	li	s3,16
    1894:	f0fa6ae3          	bltu	s4,a5,17a8 <__umoddi3+0x1c4>
    1898:	01800993          	li	s3,24
    189c:	f0dff06f          	j	17a8 <__umoddi3+0x1c4>
    18a0:	e8d5eae3          	bltu	a1,a3,1734 <__umoddi3+0x150>
    18a4:	000107b7          	lui	a5,0x10
    18a8:	04f6fc63          	bgeu	a3,a5,1900 <__umoddi3+0x31c>
    18ac:	0ff00a93          	li	s5,255
    18b0:	00dab533          	sltu	a0,s5,a3
    18b4:	00351513          	slli	a0,a0,0x3
    18b8:	000027b7          	lui	a5,0x2
    18bc:	00a6d733          	srl	a4,a3,a0
    18c0:	e3878793          	addi	a5,a5,-456 # 1e38 <__clz_tab>
    18c4:	00e787b3          	add	a5,a5,a4
    18c8:	0007ca83          	lbu	s5,0(a5)
    18cc:	02000793          	li	a5,32
    18d0:	00aa8ab3          	add	s5,s5,a0
    18d4:	41578a33          	sub	s4,a5,s5
    18d8:	03579e63          	bne	a5,s5,1914 <__umoddi3+0x330>
    18dc:	0166e463          	bltu	a3,s6,18e4 <__umoddi3+0x300>
    18e0:	00c96a63          	bltu	s2,a2,18f4 <__umoddi3+0x310>
    18e4:	40c90433          	sub	s0,s2,a2
    18e8:	40db05b3          	sub	a1,s6,a3
    18ec:	00893533          	sltu	a0,s2,s0
    18f0:	40a584b3          	sub	s1,a1,a0
    18f4:	00040513          	mv	a0,s0
    18f8:	00048593          	mv	a1,s1
    18fc:	e39ff06f          	j	1734 <__umoddi3+0x150>
    1900:	010007b7          	lui	a5,0x1000
    1904:	01000513          	li	a0,16
    1908:	faf6e8e3          	bltu	a3,a5,18b8 <__umoddi3+0x2d4>
    190c:	01800513          	li	a0,24
    1910:	fa9ff06f          	j	18b8 <__umoddi3+0x2d4>
    1914:	014696b3          	sll	a3,a3,s4
    1918:	015657b3          	srl	a5,a2,s5
    191c:	00d7ec33          	or	s8,a5,a3
    1920:	015b5d33          	srl	s10,s6,s5
    1924:	014b15b3          	sll	a1,s6,s4
    1928:	015954b3          	srl	s1,s2,s5
    192c:	010c5b13          	srli	s6,s8,0x10
    1930:	00b4e4b3          	or	s1,s1,a1
    1934:	000d0513          	mv	a0,s10
    1938:	000b0593          	mv	a1,s6
    193c:	01461cb3          	sll	s9,a2,s4
    1940:	298000ef          	jal	ra,1bd8 <__umodsi3>
    1944:	00050993          	mv	s3,a0
    1948:	000b0593          	mv	a1,s6
    194c:	000d0513          	mv	a0,s10
    1950:	010c1b93          	slli	s7,s8,0x10
    1954:	23c000ef          	jal	ra,1b90 <__udivsi3>
    1958:	010bdb93          	srli	s7,s7,0x10
    195c:	00050593          	mv	a1,a0
    1960:	01491433          	sll	s0,s2,s4
    1964:	00050913          	mv	s2,a0
    1968:	000b8513          	mv	a0,s7
    196c:	168000ef          	jal	ra,1ad4 <__mulsi3>
    1970:	01099993          	slli	s3,s3,0x10
    1974:	0104d713          	srli	a4,s1,0x10
    1978:	00e9e733          	or	a4,s3,a4
    197c:	00090d13          	mv	s10,s2
    1980:	00a77e63          	bgeu	a4,a0,199c <__umoddi3+0x3b8>
    1984:	01870733          	add	a4,a4,s8
    1988:	fff90d13          	addi	s10,s2,-1 # 7fffff <xfunc_output+0x7fbffb>
    198c:	01876863          	bltu	a4,s8,199c <__umoddi3+0x3b8>
    1990:	00a77663          	bgeu	a4,a0,199c <__umoddi3+0x3b8>
    1994:	ffe90d13          	addi	s10,s2,-2
    1998:	01870733          	add	a4,a4,s8
    199c:	40a70933          	sub	s2,a4,a0
    19a0:	000b0593          	mv	a1,s6
    19a4:	00090513          	mv	a0,s2
    19a8:	230000ef          	jal	ra,1bd8 <__umodsi3>
    19ac:	00050993          	mv	s3,a0
    19b0:	000b0593          	mv	a1,s6
    19b4:	00090513          	mv	a0,s2
    19b8:	1d8000ef          	jal	ra,1b90 <__udivsi3>
    19bc:	00050913          	mv	s2,a0
    19c0:	00050593          	mv	a1,a0
    19c4:	000b8513          	mv	a0,s7
    19c8:	10c000ef          	jal	ra,1ad4 <__mulsi3>
    19cc:	01049713          	slli	a4,s1,0x10
    19d0:	01099993          	slli	s3,s3,0x10
    19d4:	01075713          	srli	a4,a4,0x10
    19d8:	00e9e733          	or	a4,s3,a4
    19dc:	00090793          	mv	a5,s2
    19e0:	00a77e63          	bgeu	a4,a0,19fc <__umoddi3+0x418>
    19e4:	01870733          	add	a4,a4,s8
    19e8:	fff90793          	addi	a5,s2,-1
    19ec:	01876863          	bltu	a4,s8,19fc <__umoddi3+0x418>
    19f0:	00a77663          	bgeu	a4,a0,19fc <__umoddi3+0x418>
    19f4:	ffe90793          	addi	a5,s2,-2
    19f8:	01870733          	add	a4,a4,s8
    19fc:	00010eb7          	lui	t4,0x10
    1a00:	010d1d13          	slli	s10,s10,0x10
    1a04:	00fd6d33          	or	s10,s10,a5
    1a08:	fffe8793          	addi	a5,t4,-1 # ffff <xfunc_output+0xbffb>
    1a0c:	00fd78b3          	and	a7,s10,a5
    1a10:	00fcf7b3          	and	a5,s9,a5
    1a14:	40a70733          	sub	a4,a4,a0
    1a18:	010d5d13          	srli	s10,s10,0x10
    1a1c:	010cde13          	srli	t3,s9,0x10
    1a20:	00088513          	mv	a0,a7
    1a24:	00078593          	mv	a1,a5
    1a28:	0ac000ef          	jal	ra,1ad4 <__mulsi3>
    1a2c:	00050813          	mv	a6,a0
    1a30:	000e0593          	mv	a1,t3
    1a34:	00088513          	mv	a0,a7
    1a38:	09c000ef          	jal	ra,1ad4 <__mulsi3>
    1a3c:	00050893          	mv	a7,a0
    1a40:	00078593          	mv	a1,a5
    1a44:	000d0513          	mv	a0,s10
    1a48:	08c000ef          	jal	ra,1ad4 <__mulsi3>
    1a4c:	00050313          	mv	t1,a0
    1a50:	000e0593          	mv	a1,t3
    1a54:	000d0513          	mv	a0,s10
    1a58:	07c000ef          	jal	ra,1ad4 <__mulsi3>
    1a5c:	01085793          	srli	a5,a6,0x10
    1a60:	006888b3          	add	a7,a7,t1
    1a64:	011787b3          	add	a5,a5,a7
    1a68:	0067f463          	bgeu	a5,t1,1a70 <__umoddi3+0x48c>
    1a6c:	01d50533          	add	a0,a0,t4
    1a70:	0107d593          	srli	a1,a5,0x10
    1a74:	00a585b3          	add	a1,a1,a0
    1a78:	00010537          	lui	a0,0x10
    1a7c:	fff50513          	addi	a0,a0,-1 # ffff <xfunc_output+0xbffb>
    1a80:	00a7f7b3          	and	a5,a5,a0
    1a84:	01079793          	slli	a5,a5,0x10
    1a88:	00a87533          	and	a0,a6,a0
    1a8c:	00a78533          	add	a0,a5,a0
    1a90:	00b76663          	bltu	a4,a1,1a9c <__umoddi3+0x4b8>
    1a94:	00b71e63          	bne	a4,a1,1ab0 <__umoddi3+0x4cc>
    1a98:	00a47c63          	bgeu	s0,a0,1ab0 <__umoddi3+0x4cc>
    1a9c:	41950633          	sub	a2,a0,s9
    1aa0:	00c537b3          	sltu	a5,a0,a2
    1aa4:	018787b3          	add	a5,a5,s8
    1aa8:	40f585b3          	sub	a1,a1,a5
    1aac:	00060513          	mv	a0,a2
    1ab0:	40a40533          	sub	a0,s0,a0
    1ab4:	00a43433          	sltu	s0,s0,a0
    1ab8:	40b705b3          	sub	a1,a4,a1
    1abc:	408585b3          	sub	a1,a1,s0
    1ac0:	01559433          	sll	s0,a1,s5
    1ac4:	01455533          	srl	a0,a0,s4
    1ac8:	00a46533          	or	a0,s0,a0
    1acc:	0145d5b3          	srl	a1,a1,s4
    1ad0:	c65ff06f          	j	1734 <__umoddi3+0x150>

00001ad4 <__mulsi3>:
    1ad4:	00050613          	mv	a2,a0
    1ad8:	00000513          	li	a0,0
    1adc:	0015f693          	andi	a3,a1,1
    1ae0:	00068463          	beqz	a3,1ae8 <__mulsi3+0x14>
    1ae4:	00c50533          	add	a0,a0,a2
    1ae8:	0015d593          	srli	a1,a1,0x1
    1aec:	00161613          	slli	a2,a2,0x1
    1af0:	fe0596e3          	bnez	a1,1adc <__mulsi3+0x8>
    1af4:	00008067          	ret

00001af8 <__muldi3>:
    1af8:	00050313          	mv	t1,a0
    1afc:	ff010113          	addi	sp,sp,-16
    1b00:	00060513          	mv	a0,a2
    1b04:	00068893          	mv	a7,a3
    1b08:	00112623          	sw	ra,12(sp)
    1b0c:	00030613          	mv	a2,t1
    1b10:	00050693          	mv	a3,a0
    1b14:	00000713          	li	a4,0
    1b18:	00000793          	li	a5,0
    1b1c:	00000813          	li	a6,0
    1b20:	0016fe13          	andi	t3,a3,1
    1b24:	00171e93          	slli	t4,a4,0x1
    1b28:	000e0c63          	beqz	t3,1b40 <__muldi3+0x48>
    1b2c:	01060e33          	add	t3,a2,a6
    1b30:	010e3833          	sltu	a6,t3,a6
    1b34:	00e787b3          	add	a5,a5,a4
    1b38:	00f807b3          	add	a5,a6,a5
    1b3c:	000e0813          	mv	a6,t3
    1b40:	01f65713          	srli	a4,a2,0x1f
    1b44:	0016d693          	srli	a3,a3,0x1
    1b48:	00eee733          	or	a4,t4,a4
    1b4c:	00161613          	slli	a2,a2,0x1
    1b50:	fc0698e3          	bnez	a3,1b20 <__muldi3+0x28>
    1b54:	00058663          	beqz	a1,1b60 <__muldi3+0x68>
    1b58:	f7dff0ef          	jal	ra,1ad4 <__mulsi3>
    1b5c:	00a787b3          	add	a5,a5,a0
    1b60:	00088a63          	beqz	a7,1b74 <__muldi3+0x7c>
    1b64:	00030513          	mv	a0,t1
    1b68:	00088593          	mv	a1,a7
    1b6c:	f69ff0ef          	jal	ra,1ad4 <__mulsi3>
    1b70:	00f507b3          	add	a5,a0,a5
    1b74:	00c12083          	lw	ra,12(sp)
    1b78:	00080513          	mv	a0,a6
    1b7c:	00078593          	mv	a1,a5
    1b80:	01010113          	addi	sp,sp,16
    1b84:	00008067          	ret

00001b88 <__divsi3>:
    1b88:	06054063          	bltz	a0,1be8 <__umodsi3+0x10>
    1b8c:	0605c663          	bltz	a1,1bf8 <__umodsi3+0x20>

00001b90 <__udivsi3>:
    1b90:	00058613          	mv	a2,a1
    1b94:	00050593          	mv	a1,a0
    1b98:	fff00513          	li	a0,-1
    1b9c:	02060c63          	beqz	a2,1bd4 <__udivsi3+0x44>
    1ba0:	00100693          	li	a3,1
    1ba4:	00b67a63          	bgeu	a2,a1,1bb8 <__udivsi3+0x28>
    1ba8:	00c05863          	blez	a2,1bb8 <__udivsi3+0x28>
    1bac:	00161613          	slli	a2,a2,0x1
    1bb0:	00169693          	slli	a3,a3,0x1
    1bb4:	feb66ae3          	bltu	a2,a1,1ba8 <__udivsi3+0x18>
    1bb8:	00000513          	li	a0,0
    1bbc:	00c5e663          	bltu	a1,a2,1bc8 <__udivsi3+0x38>
    1bc0:	40c585b3          	sub	a1,a1,a2
    1bc4:	00d56533          	or	a0,a0,a3
    1bc8:	0016d693          	srli	a3,a3,0x1
    1bcc:	00165613          	srli	a2,a2,0x1
    1bd0:	fe0696e3          	bnez	a3,1bbc <__udivsi3+0x2c>
    1bd4:	00008067          	ret

00001bd8 <__umodsi3>:
    1bd8:	00008293          	mv	t0,ra
    1bdc:	fb5ff0ef          	jal	ra,1b90 <__udivsi3>
    1be0:	00058513          	mv	a0,a1
    1be4:	00028067          	jr	t0
    1be8:	40a00533          	neg	a0,a0
    1bec:	00b04863          	bgtz	a1,1bfc <__umodsi3+0x24>
    1bf0:	40b005b3          	neg	a1,a1
    1bf4:	f9dff06f          	j	1b90 <__udivsi3>
    1bf8:	40b005b3          	neg	a1,a1
    1bfc:	00008293          	mv	t0,ra
    1c00:	f91ff0ef          	jal	ra,1b90 <__udivsi3>
    1c04:	40a00533          	neg	a0,a0
    1c08:	00028067          	jr	t0

00001c0c <__modsi3>:
    1c0c:	00008293          	mv	t0,ra
    1c10:	0005ca63          	bltz	a1,1c24 <__modsi3+0x18>
    1c14:	00054c63          	bltz	a0,1c2c <__modsi3+0x20>
    1c18:	f79ff0ef          	jal	ra,1b90 <__udivsi3>
    1c1c:	00058513          	mv	a0,a1
    1c20:	00028067          	jr	t0
    1c24:	40b005b3          	neg	a1,a1
    1c28:	fe0558e3          	bgez	a0,1c18 <__modsi3+0xc>
    1c2c:	40a00533          	neg	a0,a0
    1c30:	f61ff0ef          	jal	ra,1b90 <__udivsi3>
    1c34:	40b00533          	neg	a0,a1
    1c38:	00028067          	jr	t0

00001c3c <strlen>:
    1c3c:	00357793          	andi	a5,a0,3
    1c40:	00050713          	mv	a4,a0
    1c44:	04079c63          	bnez	a5,1c9c <strlen+0x60>
    1c48:	7f7f86b7          	lui	a3,0x7f7f8
    1c4c:	f7f68693          	addi	a3,a3,-129 # 7f7f7f7f <xfunc_output+0x7f7f3f7b>
    1c50:	fff00593          	li	a1,-1
    1c54:	00072603          	lw	a2,0(a4)
    1c58:	00470713          	addi	a4,a4,4
    1c5c:	00d677b3          	and	a5,a2,a3
    1c60:	00d787b3          	add	a5,a5,a3
    1c64:	00c7e7b3          	or	a5,a5,a2
    1c68:	00d7e7b3          	or	a5,a5,a3
    1c6c:	feb784e3          	beq	a5,a1,1c54 <strlen+0x18>
    1c70:	ffc74683          	lbu	a3,-4(a4)
    1c74:	ffd74603          	lbu	a2,-3(a4)
    1c78:	ffe74783          	lbu	a5,-2(a4)
    1c7c:	40a70733          	sub	a4,a4,a0
    1c80:	04068063          	beqz	a3,1cc0 <strlen+0x84>
    1c84:	02060a63          	beqz	a2,1cb8 <strlen+0x7c>
    1c88:	00f03533          	snez	a0,a5
    1c8c:	00e50533          	add	a0,a0,a4
    1c90:	ffe50513          	addi	a0,a0,-2
    1c94:	00008067          	ret
    1c98:	fa0688e3          	beqz	a3,1c48 <strlen+0xc>
    1c9c:	00074783          	lbu	a5,0(a4)
    1ca0:	00170713          	addi	a4,a4,1
    1ca4:	00377693          	andi	a3,a4,3
    1ca8:	fe0798e3          	bnez	a5,1c98 <strlen+0x5c>
    1cac:	40a70733          	sub	a4,a4,a0
    1cb0:	fff70513          	addi	a0,a4,-1
    1cb4:	00008067          	ret
    1cb8:	ffd70513          	addi	a0,a4,-3
    1cbc:	00008067          	ret
    1cc0:	ffc70513          	addi	a0,a4,-4
    1cc4:	00008067          	ret
